%7$
% 7$
%"7$
%$7$
%&7$
%(7$
%*7$
%,7$
%.7$
%07$
%27$
%47$
%67$
%87$
%:7$
% 7$
%"7$
%$7$
%&7$
%(7$
%*7$
%,7$
%.7$
%07$
%27$
%47$
%67$
%87$
%:7$
%<7$
%>7$
%@7$
%B7$
%D7$
%F7$
%H7$
%J7$
%L7$
%N7$
%P7$
%R7$
%T7$
%V7$
%X7$
%Z7$
%\7$
%^7$
%`7$
%b7$
%d7$
%f7$
%h7$
%j7$
%l7$
%n7$
%p7$
%r7$
%t7$
%v7$
%x7$
%z7$
%|7$
%~7$
%8$
% 8$
%"8$
%$8$
%&8$
%(8$
%*8$
%,8$
%.8$
%08$
%28$
%48$
llvm.
aarch64
amdgcn
hexagon
mips
nvvm
r600
s390
xcore
null-pointer-is-valid
true
wasm
not_intrinsic
llvm.addressofreturnaddress
llvm.adjust.trampoline
llvm.annotation
llvm.assume
llvm.bitreverse
llvm.bswap
llvm.canonicalize
llvm.ceil
llvm.clear_cache
llvm.codeview.annotation
llvm.convert.from.fp16
llvm.convert.to.fp16
llvm.copysign
llvm.coro.alloc
llvm.coro.begin
llvm.coro.destroy
llvm.coro.done
llvm.coro.end
llvm.coro.frame
llvm.coro.free
llvm.coro.id
llvm.coro.noop
llvm.coro.param
llvm.coro.promise
llvm.coro.resume
llvm.coro.save
llvm.coro.size
llvm.coro.subfn.addr
llvm.coro.suspend
llvm.cos
llvm.ctlz
llvm.ctpop
llvm.cttz
llvm.dbg.addr
llvm.dbg.declare
llvm.dbg.label
llvm.dbg.value
llvm.debugtrap
llvm.donothing
llvm.eh.dwarf.cfa
llvm.eh.exceptioncode
llvm.eh.exceptionpointer
llvm.eh.return.i32
llvm.eh.return.i64
llvm.eh.sjlj.callsite
llvm.eh.sjlj.functioncontext
llvm.eh.sjlj.longjmp
llvm.eh.sjlj.lsda
llvm.eh.sjlj.setjmp
llvm.eh.sjlj.setup.dispatch
llvm.eh.typeid.for
llvm.eh.unwind.init
llvm.exp
llvm.exp2
llvm.expect
llvm.experimental.constrained.cos
llvm.experimental.constrained.exp
llvm.experimental.constrained.exp2
llvm.experimental.constrained.fadd
llvm.experimental.constrained.fdiv
llvm.experimental.constrained.fma
llvm.experimental.constrained.fmul
llvm.experimental.constrained.frem
llvm.experimental.constrained.fsub
llvm.experimental.constrained.log
llvm.experimental.constrained.log10
llvm.experimental.constrained.log2
llvm.experimental.constrained.nearbyint
llvm.experimental.constrained.pow
llvm.experimental.constrained.powi
llvm.experimental.constrained.rint
llvm.experimental.constrained.sin
llvm.experimental.constrained.sqrt
llvm.experimental.deoptimize
llvm.experimental.gc.relocate
llvm.experimental.gc.result
llvm.experimental.gc.statepoint
llvm.experimental.guard
llvm.experimental.patchpoint.i64
llvm.experimental.patchpoint.void
llvm.experimental.stackmap
llvm.experimental.vector.reduce.add
llvm.experimental.vector.reduce.and
llvm.experimental.vector.reduce.fadd
llvm.experimental.vector.reduce.fmax
llvm.experimental.vector.reduce.fmin
llvm.experimental.vector.reduce.fmul
llvm.experimental.vector.reduce.mul
llvm.experimental.vector.reduce.or
llvm.experimental.vector.reduce.smax
llvm.experimental.vector.reduce.smin
llvm.experimental.vector.reduce.umax
llvm.experimental.vector.reduce.umin
llvm.experimental.vector.reduce.xor
llvm.fabs
llvm.floor
llvm.flt.rounds
llvm.fma
llvm.fmuladd
llvm.frameaddress
llvm.fshl
llvm.fshr
llvm.gcread
llvm.gcroot
llvm.gcwrite
llvm.get.dynamic.area.offset
llvm.icall.branch.funnel
llvm.init.trampoline
llvm.instrprof.increment
llvm.instrprof.increment.step
llvm.instrprof.value.profile
llvm.invariant.end
llvm.invariant.start
llvm.launder.invariant.group
llvm.lifetime.end
llvm.lifetime.start
llvm.load.relative
llvm.localaddress
llvm.localescape
llvm.localrecover
llvm.log
llvm.log10
llvm.log2
llvm.longjmp
llvm.masked.compressstore
llvm.masked.expandload
llvm.masked.gather
llvm.masked.load
llvm.masked.scatter
llvm.masked.store
llvm.maxnum
llvm.memcpy
llvm.memcpy.element.unordered.atomic
llvm.memmove
llvm.memmove.element.unordered.atomic
llvm.memset
llvm.memset.element.unordered.atomic
llvm.minnum
llvm.nearbyint
llvm.objectsize
llvm.pcmarker
llvm.pow
llvm.powi
llvm.prefetch
llvm.ptr.annotation
llvm.read_register
llvm.readcyclecounter
llvm.returnaddress
llvm.rint
llvm.round
llvm.sadd.with.overflow
llvm.setjmp
llvm.sideeffect
llvm.siglongjmp
llvm.sigsetjmp
llvm.sin
llvm.smul.with.overflow
llvm.sqrt
llvm.ssa.copy
llvm.ssub.with.overflow
llvm.stackguard
llvm.stackprotector
llvm.stackrestore
llvm.stacksave
llvm.strip.invariant.group
llvm.thread.pointer
llvm.trap
llvm.trunc
llvm.type.checked.load
llvm.type.test
llvm.uadd.with.overflow
llvm.umul.with.overflow
llvm.usub.with.overflow
llvm.va_copy
llvm.va_end
llvm.va_start
llvm.var.annotation
llvm.write_register
llvm.xray.customevent
llvm.xray.typedevent
llvm.aarch64.clrex
llvm.aarch64.crc32b
llvm.aarch64.crc32cb
llvm.aarch64.crc32ch
llvm.aarch64.crc32cw
llvm.aarch64.crc32cx
llvm.aarch64.crc32h
llvm.aarch64.crc32w
llvm.aarch64.crc32x
llvm.aarch64.crypto.aesd
llvm.aarch64.crypto.aese
llvm.aarch64.crypto.aesimc
llvm.aarch64.crypto.aesmc
llvm.aarch64.crypto.sha1c
llvm.aarch64.crypto.sha1h
llvm.aarch64.crypto.sha1m
llvm.aarch64.crypto.sha1p
llvm.aarch64.crypto.sha1su0
llvm.aarch64.crypto.sha1su1
llvm.aarch64.crypto.sha256h
llvm.aarch64.crypto.sha256h2
llvm.aarch64.crypto.sha256su0
llvm.aarch64.crypto.sha256su1
llvm.aarch64.dmb
llvm.aarch64.dsb
llvm.aarch64.get.fpcr
llvm.aarch64.hint
llvm.aarch64.isb
llvm.aarch64.ldaxp
llvm.aarch64.ldaxr
llvm.aarch64.ldxp
llvm.aarch64.ldxr
llvm.aarch64.neon.abs
llvm.aarch64.neon.addhn
llvm.aarch64.neon.addp
llvm.aarch64.neon.cls
llvm.aarch64.neon.fabd
llvm.aarch64.neon.facge
llvm.aarch64.neon.facgt
llvm.aarch64.neon.faddv
llvm.aarch64.neon.fcvtas
llvm.aarch64.neon.fcvtau
llvm.aarch64.neon.fcvtms
llvm.aarch64.neon.fcvtmu
llvm.aarch64.neon.fcvtns
llvm.aarch64.neon.fcvtnu
llvm.aarch64.neon.fcvtps
llvm.aarch64.neon.fcvtpu
llvm.aarch64.neon.fcvtxn
llvm.aarch64.neon.fcvtzs
llvm.aarch64.neon.fcvtzu
llvm.aarch64.neon.fmax
llvm.aarch64.neon.fmaxnm
llvm.aarch64.neon.fmaxnmp
llvm.aarch64.neon.fmaxnmv
llvm.aarch64.neon.fmaxp
llvm.aarch64.neon.fmaxv
llvm.aarch64.neon.fmin
llvm.aarch64.neon.fminnm
llvm.aarch64.neon.fminnmp
llvm.aarch64.neon.fminnmv
llvm.aarch64.neon.fminp
llvm.aarch64.neon.fminv
llvm.aarch64.neon.fmulx
llvm.aarch64.neon.frecpe
llvm.aarch64.neon.frecps
llvm.aarch64.neon.frecpx
llvm.aarch64.neon.frintn
llvm.aarch64.neon.frsqrte
llvm.aarch64.neon.frsqrts
llvm.aarch64.neon.ld1x2
llvm.aarch64.neon.ld1x3
llvm.aarch64.neon.ld1x4
llvm.aarch64.neon.ld2
llvm.aarch64.neon.ld2lane
llvm.aarch64.neon.ld2r
llvm.aarch64.neon.ld3
llvm.aarch64.neon.ld3lane
llvm.aarch64.neon.ld3r
llvm.aarch64.neon.ld4
llvm.aarch64.neon.ld4lane
llvm.aarch64.neon.ld4r
llvm.aarch64.neon.pmul
llvm.aarch64.neon.pmull
llvm.aarch64.neon.pmull64
llvm.aarch64.neon.raddhn
llvm.aarch64.neon.rbit
llvm.aarch64.neon.rshrn
llvm.aarch64.neon.rsubhn
llvm.aarch64.neon.sabd
llvm.aarch64.neon.saddlp
llvm.aarch64.neon.saddlv
llvm.aarch64.neon.saddv
llvm.aarch64.neon.scalar.sqxtn
llvm.aarch64.neon.scalar.sqxtun
llvm.aarch64.neon.scalar.uqxtn
llvm.aarch64.neon.sdot
llvm.aarch64.neon.shadd
llvm.aarch64.neon.shll
llvm.aarch64.neon.shsub
llvm.aarch64.neon.smax
llvm.aarch64.neon.smaxp
llvm.aarch64.neon.smaxv
llvm.aarch64.neon.smin
llvm.aarch64.neon.sminp
llvm.aarch64.neon.sminv
llvm.aarch64.neon.smull
llvm.aarch64.neon.sqabs
llvm.aarch64.neon.sqadd
llvm.aarch64.neon.sqdmulh
llvm.aarch64.neon.sqdmull
llvm.aarch64.neon.sqdmulls.scalar
llvm.aarch64.neon.sqneg
llvm.aarch64.neon.sqrdmulh
llvm.aarch64.neon.sqrshl
llvm.aarch64.neon.sqrshrn
llvm.aarch64.neon.sqrshrun
llvm.aarch64.neon.sqshl
llvm.aarch64.neon.sqshlu
llvm.aarch64.neon.sqshrn
llvm.aarch64.neon.sqshrun
llvm.aarch64.neon.sqsub
llvm.aarch64.neon.sqxtn
llvm.aarch64.neon.sqxtun
llvm.aarch64.neon.srhadd
llvm.aarch64.neon.srshl
llvm.aarch64.neon.sshl
llvm.aarch64.neon.sshll
llvm.aarch64.neon.st1x2
llvm.aarch64.neon.st1x3
llvm.aarch64.neon.st1x4
llvm.aarch64.neon.st2
llvm.aarch64.neon.st2lane
llvm.aarch64.neon.st3
llvm.aarch64.neon.st3lane
llvm.aarch64.neon.st4
llvm.aarch64.neon.st4lane
llvm.aarch64.neon.subhn
llvm.aarch64.neon.suqadd
llvm.aarch64.neon.tbl1
llvm.aarch64.neon.tbl2
llvm.aarch64.neon.tbl3
llvm.aarch64.neon.tbl4
llvm.aarch64.neon.tbx1
llvm.aarch64.neon.tbx2
llvm.aarch64.neon.tbx3
llvm.aarch64.neon.tbx4
llvm.aarch64.neon.uabd
llvm.aarch64.neon.uaddlp
llvm.aarch64.neon.uaddlv
llvm.aarch64.neon.uaddv
llvm.aarch64.neon.udot
llvm.aarch64.neon.uhadd
AirMsaaSamplePattern
llvm.aarch64.neon.uhsub
llvm.aarch64.neon.umax
llvm.aarch64.neon.umaxp
llvm.aarch64.neon.umaxv
llvm.aarch64.neon.umin
llvm.aarch64.neon.uminp
llvm.aarch64.neon.uminv
llvm.aarch64.neon.umull
llvm.aarch64.neon.uqadd
llvm.aarch64.neon.uqrshl
llvm.aarch64.neon.uqrshrn
llvm.aarch64.neon.uqshl
llvm.aarch64.neon.uqshrn
llvm.aarch64.neon.uqsub
llvm.aarch64.neon.uqxtn
llvm.aarch64.neon.urecpe
llvm.aarch64.neon.urhadd
llvm.aarch64.neon.urshl
llvm.aarch64.neon.ursqrte
llvm.aarch64.neon.ushl
llvm.aarch64.neon.ushll
llvm.aarch64.neon.usqadd
llvm.aarch64.neon.vcopy.lane
llvm.aarch64.neon.vcvtfp2fxs
llvm.aarch64.neon.vcvtfp2fxu
llvm.aarch64.neon.vcvtfp2hf
llvm.aarch64.neon.vcvtfxs2fp
llvm.aarch64.neon.vcvtfxu2fp
llvm.aarch64.neon.vcvthf2fp
llvm.aarch64.neon.vsli
llvm.aarch64.neon.vsri
llvm.aarch64.sdiv
llvm.aarch64.sisd.fabd
llvm.aarch64.sisd.fcvtxn
llvm.aarch64.stlxp
llvm.aarch64.stlxr
llvm.aarch64.stxp
llvm.aarch64.stxr
llvm.aarch64.udiv
llvm.amdgcn.alignbit
llvm.amdgcn.alignbyte
llvm.amdgcn.atomic.dec
llvm.amdgcn.atomic.inc
llvm.amdgcn.break
llvm.amdgcn.buffer.atomic.add
llvm.amdgcn.buffer.atomic.and
llvm.amdgcn.buffer.atomic.cmpswap
llvm.amdgcn.buffer.atomic.or
llvm.amdgcn.buffer.atomic.smax
llvm.amdgcn.buffer.atomic.smin
llvm.amdgcn.buffer.atomic.sub
llvm.amdgcn.buffer.atomic.swap
llvm.amdgcn.buffer.atomic.umax
llvm.amdgcn.buffer.atomic.umin
llvm.amdgcn.buffer.atomic.xor
llvm.amdgcn.buffer.load
llvm.amdgcn.buffer.load.format
llvm.amdgcn.buffer.store
llvm.amdgcn.buffer.store.format
llvm.amdgcn.buffer.wbinvl1
llvm.amdgcn.buffer.wbinvl1.sc
llvm.amdgcn.buffer.wbinvl1.vol
llvm.amdgcn.class
llvm.amdgcn.cos
llvm.amdgcn.cubeid
llvm.amdgcn.cubema
llvm.amdgcn.cubesc
llvm.amdgcn.cubetc
llvm.amdgcn.cvt.pk.i16
llvm.amdgcn.cvt.pk.u16
llvm.amdgcn.cvt.pk.u8.f32
llvm.amdgcn.cvt.pknorm.i16
llvm.amdgcn.cvt.pknorm.u16
llvm.amdgcn.cvt.pkrtz
llvm.amdgcn.dispatch.id
llvm.amdgcn.dispatch.ptr
llvm.amdgcn.div.fixup
llvm.amdgcn.div.fmas
llvm.amdgcn.div.scale
llvm.amdgcn.ds.bpermute
llvm.amdgcn.ds.fadd
llvm.amdgcn.ds.fmax
llvm.amdgcn.ds.fmin
llvm.amdgcn.ds.permute
llvm.amdgcn.ds.swizzle
llvm.amdgcn.else
llvm.amdgcn.else.break
llvm.amdgcn.end.cf
llvm.amdgcn.exp
llvm.amdgcn.exp.compr
llvm.amdgcn.fcmp
llvm.amdgcn.fdiv.fast
llvm.amdgcn.fdot2
llvm.amdgcn.fmad.ftz
llvm.amdgcn.fmed3
llvm.amdgcn.fmul.legacy
llvm.amdgcn.fract
llvm.amdgcn.frexp.exp
llvm.amdgcn.frexp.mant
llvm.amdgcn.groupstaticsize
llvm.amdgcn.icmp
llvm.amdgcn.if
llvm.amdgcn.if.break
llvm.amdgcn.image.atomic.add.1d
llvm.amdgcn.image.atomic.add.1darray
llvm.amdgcn.image.atomic.add.2d
llvm.amdgcn.image.atomic.add.2darray
llvm.amdgcn.image.atomic.add.2darraymsaa
llvm.amdgcn.image.atomic.add.2dmsaa
llvm.amdgcn.image.atomic.add.3d
llvm.amdgcn.image.atomic.add.cube
llvm.amdgcn.image.atomic.and.1d
llvm.amdgcn.image.atomic.and.1darray
llvm.amdgcn.image.atomic.and.2d
llvm.amdgcn.image.atomic.and.2darray
llvm.amdgcn.image.atomic.and.2darraymsaa
llvm.amdgcn.image.atomic.and.2dmsaa
llvm.amdgcn.image.atomic.and.3d
llvm.amdgcn.image.atomic.and.cube
llvm.amdgcn.image.atomic.cmpswap.1d
llvm.amdgcn.image.atomic.cmpswap.1darray
llvm.amdgcn.image.atomic.cmpswap.2d
llvm.amdgcn.image.atomic.cmpswap.2darray
llvm.amdgcn.image.atomic.cmpswap.2darraymsaa
llvm.amdgcn.image.atomic.cmpswap.2dmsaa
llvm.amdgcn.image.atomic.cmpswap.3d
llvm.amdgcn.image.atomic.cmpswap.cube
llvm.amdgcn.image.atomic.dec.1d
llvm.amdgcn.image.atomic.dec.1darray
llvm.amdgcn.image.atomic.dec.2d
llvm.amdgcn.image.atomic.dec.2darray
llvm.amdgcn.image.atomic.dec.2darraymsaa
llvm.amdgcn.image.atomic.dec.2dmsaa
llvm.amdgcn.image.atomic.dec.3d
llvm.amdgcn.image.atomic.dec.cube
llvm.amdgcn.image.atomic.inc.1d
llvm.amdgcn.image.atomic.inc.1darray
llvm.amdgcn.image.atomic.inc.2d
llvm.amdgcn.image.atomic.inc.2darray
llvm.amdgcn.image.atomic.inc.2darraymsaa
llvm.amdgcn.image.atomic.inc.2dmsaa
llvm.amdgcn.image.atomic.inc.3d
llvm.amdgcn.image.atomic.inc.cube
llvm.amdgcn.image.atomic.or.1d
llvm.amdgcn.image.atomic.or.1darray
llvm.amdgcn.image.atomic.or.2d
llvm.amdgcn.image.atomic.or.2darray
llvm.amdgcn.image.atomic.or.2darraymsaa
llvm.amdgcn.image.atomic.or.2dmsaa
llvm.amdgcn.image.atomic.or.3d
llvm.amdgcn.image.atomic.or.cube
llvm.amdgcn.image.atomic.smax.1d
llvm.amdgcn.image.atomic.smax.1darray
llvm.amdgcn.image.atomic.smax.2d
llvm.amdgcn.image.atomic.smax.2darray
llvm.amdgcn.image.atomic.smax.2darraymsaa
llvm.amdgcn.image.atomic.smax.2dmsaa
llvm.amdgcn.image.atomic.smax.3d
llvm.amdgcn.image.atomic.smax.cube
llvm.amdgcn.image.atomic.smin.1d
llvm.amdgcn.image.atomic.smin.1darray
llvm.amdgcn.image.atomic.smin.2d
llvm.amdgcn.image.atomic.smin.2darray
llvm.amdgcn.image.atomic.smin.2darraymsaa
llvm.amdgcn.image.atomic.smin.2dmsaa
llvm.amdgcn.image.atomic.smin.3d
llvm.amdgcn.image.atomic.smin.cube
llvm.amdgcn.image.atomic.sub.1d
llvm.amdgcn.image.atomic.sub.1darray
llvm.amdgcn.image.atomic.sub.2d
llvm.amdgcn.image.atomic.sub.2darray
llvm.amdgcn.image.atomic.sub.2darraymsaa
llvm.amdgcn.image.atomic.sub.2dmsaa
llvm.amdgcn.image.atomic.sub.3d
llvm.amdgcn.image.atomic.sub.cube
llvm.amdgcn.image.atomic.swap.1d
float4x3
llvm.amdgcn.image.atomic.swap.1darray
llvm.amdgcn.image.atomic.swap.2d
llvm.amdgcn.image.atomic.swap.2darray
llvm.amdgcn.image.atomic.swap.2darraymsaa
llvm.amdgcn.image.atomic.swap.2dmsaa
llvm.amdgcn.image.atomic.swap.3d
llvm.amdgcn.image.atomic.swap.cube
llvm.amdgcn.image.atomic.umax.1d
llvm.amdgcn.image.atomic.umax.1darray
llvm.amdgcn.image.atomic.umax.2d
llvm.amdgcn.image.atomic.umax.2darray
llvm.amdgcn.image.atomic.umax.2darraymsaa
llvm.amdgcn.image.atomic.umax.2dmsaa
llvm.amdgcn.image.atomic.umax.3d
llvm.amdgcn.image.atomic.umax.cube
llvm.amdgcn.image.atomic.umin.1d
llvm.amdgcn.image.atomic.umin.1darray
llvm.amdgcn.image.atomic.umin.2d
llvm.amdgcn.image.atomic.umin.2darray
llvm.amdgcn.image.atomic.umin.2darraymsaa
llvm.amdgcn.image.atomic.umin.2dmsaa
llvm.amdgcn.image.atomic.umin.3d
llvm.amdgcn.image.atomic.umin.cube
llvm.amdgcn.image.atomic.xor.1d
llvm.amdgcn.image.atomic.xor.1darray
llvm.amdgcn.image.atomic.xor.2d
llvm.amdgcn.image.atomic.xor.2darray
llvm.amdgcn.image.atomic.xor.2darraymsaa
llvm.amdgcn.image.atomic.xor.2dmsaa
llvm.amdgcn.image.atomic.xor.3d
llvm.amdgcn.image.atomic.xor.cube
llvm.amdgcn.image.gather4.2d
llvm.amdgcn.image.gather4.2darray
llvm.amdgcn.image.gather4.b.2d
llvm.amdgcn.image.gather4.b.2darray
llvm.amdgcn.image.gather4.b.cl.2d
llvm.amdgcn.image.gather4.b.cl.2darray
llvm.amdgcn.image.gather4.b.cl.cube
llvm.amdgcn.image.gather4.b.cl.o.2d
llvm.amdgcn.image.gather4.b.cl.o.2darray
llvm.amdgcn.image.gather4.b.cl.o.cube
llvm.amdgcn.image.gather4.b.cube
llvm.amdgcn.image.gather4.b.o.2d
llvm.amdgcn.image.gather4.b.o.2darray
llvm.amdgcn.image.gather4.b.o.cube
llvm.amdgcn.image.gather4.c.2d
llvm.amdgcn.image.gather4.c.2darray
llvm.amdgcn.image.gather4.c.b.2d
llvm.amdgcn.image.gather4.c.b.2darray
llvm.amdgcn.image.gather4.c.b.cl.2d
llvm.amdgcn.image.gather4.c.b.cl.2darray
llvm.amdgcn.image.gather4.c.b.cl.cube
llvm.amdgcn.image.gather4.c.b.cl.o.2d
llvm.amdgcn.image.gather4.c.b.cl.o.2darray
llvm.amdgcn.image.gather4.c.b.cl.o.cube
llvm.amdgcn.image.gather4.c.b.cube
llvm.amdgcn.image.gather4.c.b.o.2d
llvm.amdgcn.image.gather4.c.b.o.2darray
llvm.amdgcn.image.gather4.c.b.o.cube
llvm.amdgcn.image.gather4.c.cl.2d
llvm.amdgcn.image.gather4.c.cl.2darray
llvm.amdgcn.image.gather4.c.cl.cube
llvm.amdgcn.image.gather4.c.cl.o.2d
llvm.amdgcn.image.gather4.c.cl.o.2darray
llvm.amdgcn.image.gather4.c.cl.o.cube
llvm.amdgcn.image.gather4.c.cube
llvm.amdgcn.image.gather4.c.l.2d
llvm.amdgcn.image.gather4.c.l.2darray
llvm.amdgcn.image.gather4.c.l.cube
llvm.amdgcn.image.gather4.c.l.o.2d
llvm.amdgcn.image.gather4.c.l.o.2darray
llvm.amdgcn.image.gather4.c.l.o.cube
llvm.amdgcn.image.gather4.c.lz.2d
llvm.amdgcn.image.gather4.c.lz.2darray
llvm.amdgcn.image.gather4.c.lz.cube
llvm.amdgcn.image.gather4.c.lz.o.2d
llvm.amdgcn.image.gather4.c.lz.o.2darray
llvm.amdgcn.image.gather4.c.lz.o.cube
llvm.amdgcn.image.gather4.c.o.2d
llvm.amdgcn.image.gather4.c.o.2darray
llvm.amdgcn.image.gather4.c.o.cube
llvm.amdgcn.image.gather4.cl.2d
llvm.amdgcn.image.gather4.cl.2darray
llvm.amdgcn.image.gather4.cl.cube
llvm.amdgcn.image.gather4.cl.o.2d
llvm.amdgcn.image.gather4.cl.o.2darray
llvm.amdgcn.image.gather4.cl.o.cube
llvm.amdgcn.image.gather4.cube
llvm.amdgcn.image.gather4.l.2d
air-raster-order-groups
llvm.amdgcn.image.gather4.l.2darray
llvm.amdgcn.image.gather4.l.cube
llvm.amdgcn.image.gather4.l.o.2d
llvm.amdgcn.image.gather4.l.o.2darray
llvm.amdgcn.image.gather4.l.o.cube
llvm.amdgcn.image.gather4.lz.2d
llvm.amdgcn.image.gather4.lz.2darray
llvm.amdgcn.image.gather4.lz.cube
llvm.amdgcn.image.gather4.lz.o.2d
llvm.amdgcn.image.gather4.lz.o.2darray
llvm.amdgcn.image.gather4.lz.o.cube
llvm.amdgcn.image.gather4.o.2d
llvm.amdgcn.image.gather4.o.2darray
llvm.amdgcn.image.gather4.o.cube
llvm.amdgcn.image.getlod.1d
llvm.amdgcn.image.getlod.1darray
llvm.amdgcn.image.getlod.2d
llvm.amdgcn.image.getlod.2darray
llvm.amdgcn.image.getlod.3d
llvm.amdgcn.image.getlod.cube
llvm.amdgcn.image.getresinfo.1d
llvm.amdgcn.image.getresinfo.1darray
llvm.amdgcn.image.getresinfo.2d
llvm.amdgcn.image.getresinfo.2darray
llvm.amdgcn.image.getresinfo.2darraymsaa
llvm.amdgcn.image.getresinfo.2dmsaa
llvm.amdgcn.image.getresinfo.3d
llvm.amdgcn.image.getresinfo.cube
llvm.amdgcn.image.load.1d
llvm.amdgcn.image.load.1darray
llvm.amdgcn.image.load.2d
llvm.amdgcn.image.load.2darray
llvm.amdgcn.image.load.2darraymsaa
llvm.amdgcn.image.load.2dmsaa
llvm.amdgcn.image.load.3d
llvm.amdgcn.image.load.cube
llvm.amdgcn.image.load.mip.1d
llvm.amdgcn.image.load.mip.1darray
llvm.amdgcn.image.load.mip.2d
llvm.amdgcn.image.load.mip.2darray
llvm.amdgcn.image.load.mip.3d
llvm.amdgcn.image.load.mip.cube
llvm.amdgcn.image.sample.1d
llvm.amdgcn.image.sample.1darray
llvm.amdgcn.image.sample.2d
air.dispatch_quadgroups_per_threadgroup
llvm.amdgcn.image.sample.2darray
llvm.amdgcn.image.sample.3d
llvm.amdgcn.image.sample.b.1d
llvm.amdgcn.image.sample.b.1darray
llvm.amdgcn.image.sample.b.2d
llvm.amdgcn.image.sample.b.2darray
llvm.amdgcn.image.sample.b.3d
llvm.amdgcn.image.sample.b.cl.1d
llvm.amdgcn.image.sample.b.cl.1darray
llvm.amdgcn.image.sample.b.cl.2d
llvm.amdgcn.image.sample.b.cl.2darray
llvm.amdgcn.image.sample.b.cl.3d
llvm.amdgcn.image.sample.b.cl.cube
llvm.amdgcn.image.sample.b.cl.o.1d
llvm.amdgcn.image.sample.b.cl.o.1darray
llvm.amdgcn.image.sample.b.cl.o.2d
llvm.amdgcn.image.sample.b.cl.o.2darray
llvm.amdgcn.image.sample.b.cl.o.3d
llvm.amdgcn.image.sample.b.cl.o.cube
llvm.amdgcn.image.sample.b.cube
llvm.amdgcn.image.sample.b.o.1d
llvm.amdgcn.image.sample.b.o.1darray
llvm.amdgcn.image.sample.b.o.2d
Translate AIR
llvm.amdgcn.image.sample.b.o.2darray
llvm.amdgcn.image.sample.b.o.3d
llvm.amdgcn.image.sample.b.o.cube
llvm.amdgcn.image.sample.c.1d
llvm.amdgcn.image.sample.c.1darray
llvm.amdgcn.image.sample.c.2d
llvm.amdgcn.image.sample.c.2darray
llvm.amdgcn.image.sample.c.3d
llvm.amdgcn.image.sample.c.b.1d
llvm.amdgcn.image.sample.c.b.1darray
llvm.amdgcn.image.sample.c.b.2d
llvm.amdgcn.image.sample.c.b.2darray
Custom Pass Optimization
llvm.amdgcn.image.sample.c.b.3d
llvm.amdgcn.image.sample.c.b.cl.1d
llvm.amdgcn.image.sample.c.b.cl.1darray
llvm.amdgcn.image.sample.c.b.cl.2d
llvm.amdgcn.image.sample.c.b.cl.2darray
llvm.amdgcn.image.sample.c.b.cl.3d
Indirect ICB Propagaion
llvm.amdgcn.image.sample.c.b.cl.cube
llvm.amdgcn.image.sample.c.b.cl.o.1d
llvm.amdgcn.image.sample.c.b.cl.o.1darray
llvm.amdgcn.image.sample.c.b.cl.o.2d
GenStrengthReduction
llvm.amdgcn.image.sample.c.b.cl.o.2darray
llvm.amdgcn.image.sample.c.b.cl.o.3d
flattenSmallSwitch
llvm.amdgcn.image.sample.c.b.cl.o.cube
llvm.amdgcn.image.sample.c.b.cube
if.then
llvm.amdgcn.image.sample.c.b.o.1d
if.end
llvm.amdgcn.image.sample.c.b.o.1darray
const-prop with shader-const replacement
llvm.amdgcn.image.sample.c.b.o.2d
igc-custom-unsafe-opt-pass
llvm.amdgcn.image.sample.c.b.o.2darray
igc-hoist-fmul-in-loop-pass
llvm.amdgcn.image.sample.c.b.o.3d
EarlyOutPatterns
llvm.amdgcn.image.sample.c.b.o.cube
.seg1
llvm.amdgcn.image.sample.c.cd.1d
.seg3
llvm.amdgcn.image.sample.c.cd.1darray
igc-custom-loop-opt
llvm.amdgcn.image.sample.c.cd.2d
igc-loop-canonicalization
llvm.amdgcn.image.sample.c.cd.2darray
llvm.amdgcn.image.sample.c.cd.3d
Custom Loop Versioning
llvm.amdgcn.image.sample.c.cd.cl.1d
BlendToDiscard
llvm.amdgcn.image.sample.c.cd.cl.1darray
igc-promote-resources-to-direct-addrspace
llvm.amdgcn.image.sample.c.cd.cl.2d
Pass promotes stateless accesses to bindless accesses
llvm.amdgcn.image.sample.c.cd.cl.2darray
PromoteStatelessToBindless
llvm.amdgcn.image.sample.c.cd.cl.3d
copysignf
llvm.amdgcn.image.sample.c.cd.cl.cube
fabs
llvm.amdgcn.image.sample.c.cd.cl.o.1d
fabsl
__builtin_IB_simd_media_block_write_4_h
overdefined
ntohs
expected ')' in parentheses expression
MCDwarfFragment
 PaddingPoliciesMask:
 Sym:
, addrspace(
addc
IntToPtr2
spp-split-backedge
llvm.hexagon.C4.fastcorner9
20ocl_image2d_array
__atomic_fetch_nand_16
unexpected token in variant, expected ')'
expected @code
unexpected token in '.ifb' directive
image2d_depth
, ...
none
OL, 
Can't find src file
mach
All llvm.experimental.deoptimize declarations must have the same calling convention
Allocation failed
<ST>
 data registers written
negative file number
llvm.amdgcn.writelane
llvm.bpf.pseudo
llvm.hexagon.C4.cmpneqi
ntohl
__sync_fetch_and_min_8
__atomic_fetch_nand_1
unexpected token in '.cv_linetable' directive
invalid variant on expression '
invalid SIMD width
 in '.build_version' directive
scev-mulops-inline-threshold
Threshold for inlining multiplication operands into a SCEV
rel32@hi
 Signed:
] unwind 
fill
page= "80.5, 110";
//.arg_
EL, 
%s_%s
Function Pass Manager
storing unsized types is not allowed
DICompileUnit not listed in llvm.dbg.cu
A No-Op Barrier Pass
!DIModule(
DW_LANG_UPC
DW_CC_nocall
 registers read back
spp-all-backedges
src1: immediate supported here on ternary instruction.
llvm.amdgcn.image.sample.d.cl.o.1darray
llvm.amdgcn.wqm.vote
llvm.arm.neon.vqsubu
llvm.bpf.load.word
llvm.hexagon.A2.vmaxw
llvm.hexagon.C4.cmpneq
", "
__fixunsxfdi
__llvm_memmove_element_unordered_atomic_16
__sync_fetch_and_umax_16
__atomic_fetch_xor_2
highest
.cfi_restore_state
 not currently supported for this target
Could not find incbin file '
line number less than zero in '.cv_loc' directive
unexpected symbol modifier following '@'
INVM
you must specify an offset on the stack
__literal16
overriding previous version directive
invalid group name
' begins
got@tlsgd@l
TYPEINDEX
 LineDelta:
USAGE: -HWThreadNumberPerEU <num>
Mismatched bundle_lock/unlock directives
malloc_ret_null
!DILexicalBlockFile(
          cleanup
spill
FESPSize
__AUTO_GENERATED_DUMMY_LAST_BB
//id
byte_offset
byte_size
kind
implicit_kind
expected comma in binary constantexpr
UNKNOWN_RA
air.patch_id
csel
rndz
<Invalid operator> 
BasicBlockPass Manager
invalid thrown type
Enclosing function does not use GC.
Stored value type does not match pointer operand type!
!dbg attachment of global variable must be a DIGlobalVariableExpression
invalid value for llvm.ident metadata entry operand(the operand should be a string)
.section
__sqrt_finite
 [null]
DW_AT_BORLAND_Delphi_metaclass
DW_OP_reg29
DW_LANG_PLI
DW_CC_program
SIMD8
 of high SIMD8
 address registers written
Src2TernaryImm
Illegal
toascii
calloc
Align1 not available on this platform
invalid instruction option
llvm.amdgcn.image.sample.c.lz.2darray
llvm.amdgcn.image.sample.d.cl.o.1d
llvm.amdgcn.kill
llvm.amdgcn.wqm
llvm.arm.neon.vcvtms
llvm.arm.neon.vqsubs
llvm.arm.smlatb
llvm.bpf.load.half
llvm.hexagon.A2.subh.l16.hl
llvm.hexagon.A2.vmaxuw
llvm.hexagon.A4.vcmpbgt
llvm.hexagon.C4.cmplteui
nearbyintl
__subdf3
__truncdfsf2
__fixunsdfsi
__nedf2
__llvm_memmove_element_unordered_atomic_1
__sync_fetch_and_or_1
__sync_fetch_and_umax_1
__atomic_fetch_sub_1
__atomic_fetch_or_4
single quote way too long
.weak_reference
.end
.cfi_rel_offset
.dcb.d
' not defined
unexpected token in directive
Could not find include file '
line number less than zero in '.loc' directive
unexpected token in '.cv_inline_site_id' directive
.warning argument must be a string
while in macro instantiation
Join
invalid '.rva' directive offset, can't be less than -2147483648 or greater than 2147483647
vfloorf
.watchos_version_min
.previous without corresponding .section
__constructor
invalid OS update specifier, comma expected
__precompiled_convert_f64_to_f16
expected '%<type>' or "<type>"
vISA_3DOption
fdiv
.globl
filechecksums_end
tlscall
got@dtprel@l
LDPLT
       
__svml_log2
__debug_cu_index
.rodata.cst16
setMessagePhaseXV@
igc-error-check
disable-nounwind-inference
isnull
typedwrite@
inteldialect 
!DIDerivedType(
 volatile
__builtin_IB_atomic_max_global_u32
xyzw
pseudo_kill
Scope
afterRemoveRedundantLabels
LABEL__EMPTYBB
%s.%03d.%s.dot
size = "80.0, 
black
 -> 
//.GRF count 
//.kernel_reordering_info_start
// -- GOOD: 
icmp requires pointer or integer operands
GRAPH_COLORING_FF_BC_RA
GRAPH_COLORING_SPILL_FF_RA
__builtin_IB_get_event_pool
NoDDChk
NoPreempt
smov
bfi2
GenSpecificPattern
cleanuppad
malloccall
BasicBlock Pass Manager
 (has loop)
'allocsize' 
invalid thrown types list
ptrtoint not supported for non-integral pointers
llvm.gcroot parameter #1 must either be a pointer alloca, or argument #2 must be a non-null constant.
gc.statepoint must read and write all memory to preserve reordering restrictions required by safepoint semantics
Store operand must be a pointer.
PtrToInt type mismatch
members of llvm.used must be named
incorrect number of operands in llvm.ident metadata
generic
Pass promotes indirect addrspace resource access to direct addrspace
__memcpy_chk
  %7.4f (%5.1f%%)
semicolon
tilde
-darwin
vaErode@
DW_AT_data_member_location
DW_AT_rvalue_reference
DW_AT_BORLAND_Delphi_record
DW_OP_lt
DW_OP_reg28
DW_OP_LLVM_fragment
DW_LANG_Fortran90
DW_CC_normal
MT1A_UF4x2
SIMD16
DWord
.hi8ds
sample max
must have 0xFF or 0xFD BTI
signed-integer min
sampler 
invalid region width on src1
Src2HorzStride
FlagModifier
SG3(0x
break
illegal
enable-store-refinement
uglygep
fputs
simdLaneId
unconvertible ternary align16 operand
expected address register subregister
expected }
llvm.amdgcn.image.sample.c.d.cl.2d
llvm.amdgcn.image.sample.c.lz.2d
llvm.amdgcn.image.sample.cd.cube
llvm.amdgcn.image.sample.d.cl.cube
llvm.amdgcn.image.sample.lz.o.2d
llvm.amdgcn.kernarg.segment.ptr
llvm.amdgcn.s.sendmsg
llvm.amdgcn.workitem.id.z
llvm.arm.mrrc2
llvm.arm.neon.vcvthf2fp
llvm.arm.neon.vmulp
llvm.arm.neon.vqshiftu
llvm.arm.neon.vtbl2
llvm.arm.smlaldx
llvm.arm.sxtab16
llvm.bpf.load.byte
llvm.hexagon.A2.combinew
llvm.hexagon.A2.subh.h16.sat.ll
llvm.hexagon.A2.vaddhs
llvm.hexagon.A2.vmaxuh
llvm.hexagon.A4.bitspliti
llvm.hexagon.A4.vcmpbeqi
llvm.hexagon.C2.cmpgt
llvm.hexagon.C4.cmplteu
right-square-bracket
__multi3
__modsi3
__addxf3
fmal
__gnu_f2h_ieee
__fixxfti
__gcc_qtou
__floatunsixf
__eqdf2
__gtdf2
__llvm_memcpy_element_unordered_atomic_2
__sync_lock_test_and_set_16
__sync_fetch_and_and_2
__sync_fetch_and_max_2
7027
__atomic_exchange_1
__atomic_fetch_add_2
__atomic_fetch_and_8
.simd8
invalid decimal number
.long
.org
.symbol_resolver
.ifge
.ifndef
.cv_filechecksumoffset
.cfi_def_cfa_offset
.err
.dc.w
unmatched .ifs or .elses
 // 
expected '=' after formal parameter identifier
 in '
expected identifier in directive
.abort '
invalid bundle alignment size (expected between 0 and 30)
unexpected token in '.line' directive
expected function id within range [0, UINT_MAX)
The Illegal Opcode Exception Enable flag in cr0.1 is normally set so the normal processing of an illegal opcode is to transfer control to the System Routine.
Instruction dispatch treats any unused 8-bit opcode (including bit 7 of the instruction, reserved for future opcode expansion) as if it is the illegal opcode.
The illegal opcode is zero because that byte value is more likely than most to be read via a wayward instruction pointer.
The illegal instruction is an instruction only in the same way that a NULL pointer in software is a pointer. Both are special values indicating invalid instances.
Format:
illegal
missing parameter qualifier for '
.err encountered
 * $$
xmmword ptr 
The else instruction is an optional statement within an if/else/endif block of code. It restricts execution within the else/endif portion to the opposite set of channels enabled under the if/else portion. Channels which were inactive prior to entering the if/endif block remain inactive throughout the entire block.
All enabled channels upon arriving the else instruction will be redirected to the matching endif. If all channels are redirected (by else or before else), a relative jump is performed to the location specified by  <JIP>. The jump target should be the matching endif instruction for that conditional block.
The following table describes the 32-bit <JIP>. In GEN binary, <JIP> is at location <src1> and must be of type D (signed dword integer). <JIP> must be an immediate operand, it is a signed 32-bit number and is intended to be forward referencing. This value is added to IP pre-increment.
If the <branch_ctrl> bit is set, then the <JIP> points to the first join instruction within the else block and <UIP> points to the endif instruction. If the <branch_ctrl> bit is not set,  <JIP> and <UIP>, both point to endif.
Format:
else (exec_size) JIP  UIP  branch_ctrl
An else instruction must not be followed by any instruction requiring register indirect access on source operands
If all channels are redirected (by else or before else), relative jump is performed to the location specified by <JIP> + 1.
.seh_endchained
unknown flag
invalid '.secrel32' directive offset, can't be less than zero or greater than std::numeric_limits<uint32_t>::max()
llvm.genx.GenISA.WaveBallot
.literal8
.objc_meta_class
.tdata
unexpected token in '.dump' or '.load' directive
" is deprecated
expected region type after '.data_region' directive
.u2f.outer.true.branch
__protocol
invalid OS major version number
 used while targeting 
Mergeable section must specify the type
unknown section type
.u2f.inner.true.branch
vISA_DumpCompilerStats
dp4a_ss@
Label: 
.byte
ScalarizeFunction
undefined .align directive, value size '
checksum_offset
Allocation failed
GOTREL
TLSLD
got@l
dtprel@ha
got@tprel@l
GPREL
igc-fix-dead-visible-functions
MCDummyFragment
 MaxBytesToEmit:
DW_AT_MIPS_ptr_dopetype
General options
__debug_gnu_pubn
__debug_rnglists
sampleCptr@
sampleDCptr@
setMessagePhase@
setMessagePhaseX@
sec_end
.subsection
Try to propagate nonnull argument attributes from callsites to caller functions.
slice_id@
notinit
sub_pair@
threadgroupbarrier_wait@
typedread@
protected 
avr_signalcc 
!DIGlobalVariableExpression(
-%%%%%%.
tail 
__builtin_IB_atomic_min_local_f32
swifterror 
fill
 out of 
% instructions of this kernel are compacted.
mem_fence
args: (
test
FullDebug
Illegal or unimplemented ISA opcode 
x86_fp80
domtree
be_fp
L_AUTO_f
beforeRemoveRedundantLabels
afterProcessGoto
LABEL__EMPTYBB__
%s.%03d.%s.dump
Succs: 
// Setup
cannot load symbol cmc_load_and_compile
<TR><TD ALIGN="CENTER">
    <TABLE BORDER="0" CELLBORDER="0" CELLSPACING="0">
    </TABLE>
    </TABLE>>];
//.CISA version 
//.RA type
//.spill flag load 
stageInGridOrigin
// Text representation might not be correct
// Bank Conflict Statistics: 
// --   OK: 
expected ')' in compare constantexpr
expected two operands to extractelement
LOCAL_FIRST_FIT_RA
GRAPH_COLORING_RR_BC_RA
GRAPH_COLORING_SPILL_FF_BC_RA
GRAPH_COLORING_SPILL_RR_RA
air.position_in_patch
Atomic
AccWrEn
NoSrcDepSet
movi
bfi1
Pass walks through sampler uses and detects sampler to texture mappings, and converts Sample to SampleL instructions.
CodeGenContext Wrapper
Flatten Small Switch
.backedge
inttoptr
landingpad
mallocsize
remark
' on Loop '
... Pass execution timing report ...
External
Function arguments must have first-class types!
' does not apply to function returns
' does not apply to functions!
invalid reference flags
subprogram declarations must not have a compile unit
Instruction has a name, but provides a void value!
inttoptr not supported for non-integral pointers
inalloca isn't on the last argument!
llvm.gcroot parameter #2 must be a constant.
gc.relocate: vector relocates to vector and pointer to pointer
 label and !dbg attachment
CatchSwitchInst handlers must be catchpads
atomic memory access' operand must have a power-of-two size
zext source and destination must both be a vector or neither
PtrToInt result must be integral
cannot guarantee tail call due to mismatched varargs
invalid llvm.used member
llvm.ident
Must specify at least 
Optimized build
igcinstcombine
__logl_finite
llvm.genx.GenISA.GradientX
        -----     
android
Optimizer
IO failure on output stream: 
colon
right-curly-bracket
prescott
goldmont-plus
__builtin_IB_atomic_min_local_i32
DW_TAG_shared_type
DW_AT_bit_offset
DW_AT_count
DW_AT_call_file
DW_AT_reference
DW_AT_MIPS_stride_elem
DW_AT_BORLAND_Delphi_class
DW_OP_const4s
DW_OP_le
DW_OP_lit29
DW_OP_reg27
DW_OP_breg29
DW_OP_GNU_const_index
DW_LANG_Fortran77
DW_LANG_Java
DW_LANG_BORLAND_Delphi
R_WEBASSEMBLY_SECTION_OFFSET_I32
MT1A_A64_UI
MT0W_US
A64 Untyped Atomic Integer Operation SIMD4x2
off (return immediately)
OWord
7040
media block 
urb dword read
 of low SIMD8
SIMD[1:0]
sample_max
Xlen
bti[
 (unknown float op)
atomic_smin
.bti[
__builtin_IB_atomic_cmpxchg_local_f16
ThreadCtrl
invalid region vertical stride on src1
Src2RegFile
CMaskUW(0x
sg8h
Addition
The brd instruction redirects the execution forward or backward to the instruction pointed by (current IP + offset). The jump will occur if any channels are branched away.
In GEN binary, JIP is at location src1 when immediate and at location src0 when reg32, where reg32 is accessed as a scalar DWord. The ip register must be used (for example, by the assembler) as dst.
Format:
[(pred)] brd (exec_size) JIP
The dp4 instruction performs a four-wide dot product on four-tuple vector basis and storing the same scalar result per four tuple to all four channels in dst.
The dot product of two vectors of equal length is the sum of the products of each pair of corresponding elements.
Format:
[(pred)] dp4[.cmod] (exec_size) dst src0 src1
An if instruction starts an if/endif or an if/else/endif block of code. It restricts execution within the conditional block to only those channels that were enabled via the predicate control.
Each if instruction must have a matching endif instruction and may have up to one matching else instruction before the matching endif.
If all channels are inactive (for the if/endif or if/else/endif block), a jump is performed to the instruction referenced by JIP. This jump must be to right after the matching else instruction when present, or otherwise to the matching endif instruction of the conditional block.
If SPF is ON, the UIP must be used to update IP; JIP is not used in this case.
The following table describes the two 16-bit instruction pointer offsets. Both the JIP and UIP are signed 16-bit numbers, added to IP pre-increment. In GEN binary, JIP and UIP are at location src1 and must be of type W (signed word integer).
Format:
[(pred)] if (exec_size) JIP UIP
missing required field 'scope'
__constant
Verify this pass produces no dead code
globalSizeUnavaliable
putchar
air.get_dispatch_quadgroups_per_threadgroup
Loop-Closed SSA Form Pass
swizzle W could not be retrieved
src%d: converting Align16 to Align1 (bits will re-assemble to Align1)
Q2 is obsolete; use M8 in execution offset: e.g. op (8|M8) ...
expected .
invalid region vertical stride
 must be an immediate label
out of dynamic memory in yyensure_buffer_stack()
instruction option
llvm.amdgcn.image.sample.c.cl.3d
llvm.amdgcn.image.sample.c.d.cl.1darray
llvm.amdgcn.image.sample.c.d.o.cube
llvm.amdgcn.image.sample.c.lz.1darray
llvm.amdgcn.image.sample.cd.1darray
llvm.amdgcn.image.sample.cd.cl.o.cube
llvm.amdgcn.image.sample.cl.o.2darray
llvm.amdgcn.image.sample.d.cl.3d
llvm.amdgcn.image.sample.l.3d
llvm.amdgcn.image.sample.lz.o.1darray
llvm.amdgcn.image.store.3d
llvm.amdgcn.interp.p2
llvm.amdgcn.readfirstlane
llvm.amdgcn.s.memtime
llvm.amdgcn.trig.preop
llvm.amdgcn.workitem.id.y
llvm.arm.isb
llvm.arm.mrrc
llvm.arm.neon.udot
llvm.arm.neon.vcvtfxu2fp
llvm.arm.neon.vld2lane
llvm.arm.neon.vmullu
llvm.arm.neon.vqmovnsu
llvm.arm.neon.vqshiftsu
llvm.arm.neon.vrsqrts
llvm.arm.neon.vtbl1
llvm.arm.sadd8
llvm.arm.smlald
llvm.arm.smusd
llvm.arm.strexd
llvm.arm.uqsub16
llvm.arm.vcvtru
llvm.hexagon.A2.addh.l16.sat.ll
llvm.hexagon.A2.combineii
llvm.hexagon.A2.orp
llvm.hexagon.A2.subh.h16.sat.lh
llvm.hexagon.A2.swiz
llvm.hexagon.A2.vaddh
llvm.hexagon.A2.vavgwcr
llvm.hexagon.A2.vmaxub
llvm.hexagon.A2.vrsadub.acc
llvm.hexagon.A4.bitsplit
llvm.hexagon.A4.cround.ri
llvm.hexagon.A4.vcmpbeq.any
llvm.hexagon.A4.vrminw
llvm.hexagon.C2.cmpgeui
llvm.hexagon.C2.pxfer.map
llvm.hexagon.C4.cmpltei
nearbyintf
__ashlhi3
__ashrhi3
__mulqi3
__divti3
__udivdi3
__negsi2
INTEL_PATCH_PRIVATE_MEMORY_SIZE
__gcc_qmul
__divtf3
__extenddftf2
EmitPass
__fixsfsi
__fixdfdi
Workaround pass used to fix functionality of special cases
V = 
__floatdixf
__floattixf
__floatuntidf
I = 
__ltdf2
__ledf2
__unorddf2
.shl.outer.merge.lo
__sync_val_compare_and_swap_2
__sync_lock_test_and_set_1
__sync_fetch_and_sub_4
.shl.outer.merge.hi
__sync_fetch_and_xor_8
__sync_fetch_and_nand_4
invalid BTI for fence (must be 0x0 or 0xFE)
.shl.outer.true.branch
__atomic_load_16
__atomic_store_4
__atomic_compare_exchange_4
.shl.merge.inner.lo
__atomic_fetch_sub_16
DataSize
.simd16
ReturnFormat
sample compare+LOD bias
.equiv
.byte
.align
.balignl
.globl
.shl.inner.false.branch
.irp
.bundle_lock
.ifeqs
.lshr.outer.merge.lo
.cv_func_id
.cv_inline_site_id
.cfi_sections
.lshr.outer.merge.hi
.cfi_window_save
.exitm
.dc.b
.lshr.outer.true.branch
.ds.l
.ds.x
on <h> region w must be Region::WI_INVALID
.lshr.merge.inner.lo
unexpected token in '.endif' directive
 Use -asm-macro-max-nesting-depth to increase this limit.
unexpected token in macro instantiation
.lshr.merge.inner.hi
 in '.org' directive
'.fill' directive pattern has been truncated to 32-bits
invalid '.comm' or '.lcomm' directive alignment, can't be less than zero
.lshr.inner.true.branch
expected comma in '.irp' directive
unexpected token in '.irpc' directive
MD5 checksum specified, but no file number
.lshr.inner.false.branch
expected file number in '.cv_file' directive
file number already allocated
halt
.ashr.outer.merge.lo
 in '.cfi_startproc' directive
Vararg parameter '
expected identifier in '.purgem' directive
.ashr.outer.merge.hi
unknown relocation name
expected identifier in '.addrsig_sym' directive
word ptr 
.ashr.outer.true.branch
expected symbol variant after '@'
expected '(' after operator
.symidx
.rva
.seh_pushframe
expected string in directive
same_contents
.ashr.merge.inner.hi
llvm.fabs.f32
.tbss
.destructor
.lazy_symbol_pointer
.objc_class
.objc_cls_refs
.picsymbol_stub
.ashr.inner.false.branch
expected identifier in .indirect_symbol directive
unexpected token in '.lsym' directive
__const
.u2f.outer.merge
invalid '.tbss' alignment, can't be lessthan zero
expected section name after comma in '.zerofill' directive
__bss
cleanupret
__class_vars
__instance_vars
__static_data
vISA_NumGenBinariesWillBePatched
absolute_symbol
.subsection
.preinit_array.
note
.soften
expected group name
 node
vISA_AddKernelID
.llvm.call-graph-profile
discard@
FK_PCRel_4
__symbols
.rsext
Disabled
.code64
.quad
Fragment can't be larger than a bundle size
<MCAssembler
  Symbols:[
_Z13get_global_idj
igc-type-legalizer
__builtin_spirv_BuiltInLocalInvocationId
.bundle_unlock forbidden when bundling is disabled
<<none>>
NTPOFF
EstimateFunctionSize
ABS8
prel31
high
Estimate Function Sizes
tprel@high
tprel@highest
dtprel@highera
.fix1.addrspacecast
IMGREL
function_type
FUNCTION
 Offset:
MCOrgFragment
MCPaddingFragment
 BundlePadding:
.fix2.addrspacecast
llvm.exp.f64
-setstartbp
<MCInst 
movcr@
__debug_abbrev
section_line_str
section_str_off
igc-addrspacecast-fix
rsq@
sampleBptr@
.debug_str_offsets
SmallVector capacity overflow during allocation
sampleinfoptr@
sampleptr@
setMessagePhaseV@
value evaluated as 
; <label>:
,#tls
,comdat
mach-o section specifier has invalid attribute
cstring_literals
simdSetMessagePhase@
simdShuffleDown@
simdSize@
.init
S_ATTR_STRIP_STATIC_SYMS
storestructured3@
storestructured4@
threadgroupbarrier@
threadgroupbarrier_signal@
typedmemoryfence@
' can not be undefined in a subtraction expression
<empty name> 
__builtin_IB_atomic_sub_local_i32
LLVM IR Parsing
distinct 
11ocl_image3d
!DIBasicType(
posix_spawn failed
!DIMacroFile(
 weak
19ocl_image2d_msaa
acquire
mem_fence
spill
 umin
             === Binary Compaction ===
 instructions of 3 src (mad/pln) are compacted.
 ; guid = 
(callee: ^
typeTests: (
llvm.loop.interleave.count
UNDEFINED_
DIFlagLValueReference
bool
__builtin_IB_atomic_max_global_u64
Enable optimization analysis remarks from passes whose name match the given regular expression
!AnalysisFPCommute
R_WEBASSEMBLY_TABLE_INDEX_SLEB
uniformRetVal
virtualConstProp
__builtin_IB_atomic_dec_global_i64
stage_in_grid_size_x
__AUTO_GENERATED_ELSE_LABEL__
L_AUTO_k
msaa_sample_pattern_offset
expected '=' in global variable
after_doCFGStructurizer
beforeProcessGoto
LABEL__
bindless_sampler_t
VCE_SAVE
Preds: 
texture_buffer
digraph 
__builtin_IB_atomic_max_local_i16
opencl.enable.FP_CONTRACT
 [shape=plaintext, label=<
    <TABLE BORDER="0" CELLBORDER="1" CELLSPACING="0">
<TR><TD>
Invalid alignment value
</FONT></TD></TR>
</TD></TR>
Explicit gep type does not match pointee type of pointer operand
//.platform 
//.stepping 
//.instCount 
LegalizeFunctionSignatures
//.spill GRF ref count 
//.spill flag store 
MaskCtrl
deviceEnqueueMaxWorkgroupSize
Failed to decode binary for asm output. Please report the issue and try disabling IGA disassembler for now.
.end_kernel
ConstantPointerProgramBinaryInfos
// --  BAD: 
snan
INVALID BTI
expected comma in compare constantexpr
packed_bool3
GOOD,
GOOD
packed_uchar3
inrange keyword may not appear on pointer operand
invalid operands to shufflevector
LOCAL_ROUND_ROBIN_RA
LOCAL_FIRST_FIT_BC_RA
HYBRID_RA
packed_half3
GRAPH_COLORING_FF_RA
GRAPH_COLORING_SPILL_RR_BC_RA
air.amplification_id
air.arg_type_size
Linear Interpolation
air.thread_position_in_grid
Switch
sat_exp
BreakPoint
NoCompact
air.concurrent_dispatch_threads_compute_command
Serialize
case value is not a constant integer
r8unorm
loop-exit-canonicalization
cbit
__builtin_spirv_OpGetKernelPreferredWorkGroupSizeMultiple
ResolveExternalVisibleFunctionName
TransformBlocks Pass
expected comma after load's type
NanHandling
Enqueue param is not a struct
unsupported platform
<unknown>:
alloca
sitofp
extractvalue
insertvalue
warning
IRInstrsBefore
 ***
' on Region '
pass
function_entry_count
vISA_HashVal
) attempted to be registered!
Offset not zero at the point of scalar access
Argument value does not match function argument type!
Invalid user of intrinsic instruction!
Attribute '
Attributes 'optsize and optnone' are incompatible!
' only applies to functions!
inlined-at should be a location
invalid vtable holder
invalid global variable ref
invalid unit type
Unexpected metadata round-trip through values
Only PHI nodes may reference their own value!
fpmath accuracy must have float type
Invalid bitcast
Duplicate integer as switch case
Attribute 'sret' cannot be used for vararg call arguments!
info argument of llvm.coro.begin must refer to an initialized constant
llvm.gcroot parameter #1 must be an alloca.
safepoints should have unique landingpads
gc.relocate: relocated value must be a gc pointer
calls to experimental_deoptimize must be followed by a return
conflicting debug info for argument
gc.statepoint number of deoptimization arguments must be positive
CatchSwitchInst cannot have empty handler list
Logical operators must have same type for operands and result!
atomic memory access' size must be byte-sized
cmpxchg instructions failure argument shall be no stronger than the success argument
ZExt only produces an integer
UIToFP result must be FP or FP vector
PtrToInt source must be pointer
Unwind edges out of a catch must have the same unwind dest as the parent catchswitch
cannot guarantee tail call due to mismatched parameter types
The landingpad instruction should have a consistent result type inside a function.
wrong initalizer for intrinsic global variable
invalid ID operand in module flag (expected metadata string)
expected a Function or null
INVALID
 (default: 
version
: Not enough positional command line arguments specified!
USAGE: 
IGC Int Type Legalizer
Vector functions library
??3@YAXPEAXAEBUnothrow_t@std@@@Z
-Gsize=7.5,10
rel32@lo
__cxa_atexit
unmaterialized function cannot have metadata
__strdup
igc-address-space-alias-analysis
Miscellaneous Ungrouped Timers
fuchsia
nvcl
eabihf
Check for input errors
(Twine 
S_ATTR_NO_TOC
hyphen
nine
left-curly-bracket
right-brace
repetition-operator operand invalid
geode
nocona
goldmont
TEMPDIR
15ocl_image2dmsaa
DW_TAG_ptr_to_member_type
DW_TAG_template_type_parameter
DW_TAG_condition
DW_TAG_GNU_template_template_param
DW_AT_byte_size
DW_AT_inline
DW_AT_calling_convention
DW_AT_static_link
DW_AT_call_column
DW_AT_recursive
DW_AT_dwo_name
DW_AT_alignment
DW_AT_MIPS_stride_byte
DW_AT_GNU_macros
DW_AT_BORLAND_Delphi_unit
DW_AT_APPLE_major_runtime_vers
DW_OP_const4u
DW_OP_mod
DW_OP_gt
DW_OP_lit13
DW_OP_lit28
DW_OP_reg13
DW_OP_reg26
DW_OP_breg13
DW_OP_breg28
DW_OP_bit_piece
DW_OP_GNU_addr_index
DW_ATE_UTF
DW_LANG_Modula2
DW_LANG_OCaml
DW_LANG_GOOGLE_RenderScript
greater-than-sign
R_WEBASSEMBLY_FUNCTION_OFFSET_I32
GED VERSION: 
MT0W_BS
MT1R_A64_US
MT_CC_OWDB
MT0A_UI
Transpose Read
A64 Untyped Atomic Integer Operation
A64 Untyped Atomic Float Add
aligned_store_block
Commit
 all L3 data
ChannelMode
a64 dword gathering read
7036
7130
typed_sgh
MSDUR_DWS
MessageTypeRC
.lo8ds
SlotGroupSelect
simd16 high
sample override lod
sample min
sample unorm+killpix
Rlen
Fill all 4 bytes per DW
_incoherent
 256b blocks
fp-compare and swap 
atomic_store
signed-integer max
invalid slot group value
 to surface 
12read_imageui20ocl_image2d_array_ro11ocl_samplerDv4_fDv2_fS2_
Src0HorzStride
dst region should be %s
operand has invalid math macro register
invalid field
Src1ChanSel
Src2DataType
src1: immediate operand in ternary align1 must be src0 or src2
BestStage1
]: #
ScratchOffset
CMaskUW
sg8l
register regioning restriction warning: Vertical stride must be used to cross GRF boundaries.
see Programmer's Reference Manual (Restriction 2.8)
Control Register
Component-wise extract a bit field from src2 using the bit field width from src0 and the bit field offset from src1. Store the extracted bit field value in the low bits of dst and sign extend (if D type) or zero extend (if UD type).
The width and offset values are from the low five bits of src0 and src1 respectively, or src0 & 0x1f and src1 & 0x1f.
If width is zero, the result is zero.
If offset + width > 32 then the extracted bit field is bits offset to 31 of src2, extracting only 32 - offset bits, less than width as the bit field cannot extend past the MSB of the source value. Otherwise extract width bits extending from bit positions offset to offset + width - 1.
Format:
[(pred)] bfe (exec_size) dst src0 src1 src2
Branch Diverging
Compare NaN
Dot Product 4
guards-predicate-pass-branch-weight
nullptr
sccp
  used by: 
reassociate-geps-verify-no-dead-code
Preserve canonical loop structure (default = true)
sink-common-insts
Speculative execution is not applied to basic blocks where the number of instructions that would not be speculatively executed exceeds this limit.
memcmp
__builtin_IB_sub_group_scan_OpGroupSMin
preserve-alignment-assumptions-during-inlining
: argument 
lcssa
igc-fix-resource-ptr
invalid reg file on dst
swizzle Z could not be retrieved
NoDDClr not supported on given platform
Q1 is obsolete; use M0 in execution offset: e.g. op (8|M0) ...
expected flag register
expected '\n', ';', or EOF
expected a0
acc5
expected ;
this form of indirect (r3[a0.0,16]) is invalid for send dst operand; use regular form: r[a0.0,16]
Message Descriptor is typeless
out of dynamic memory in yy_get_next_buffer()
expected %d data registers
Hoist FMul in Loop Pass
iga_disassemble* call uses deprecated options  (hex_floats or print_pc); see newest iga.h header file for updated fields
llvm.amdgcn.image.sample.c.cd.o.2d
llvm.amdgcn.image.sample.c.cl.2darray
llvm.amdgcn.image.sample.c.cube
llvm.amdgcn.image.sample.c.d.cl.1d
llvm.amdgcn.image.sample.c.d.cl.o.3d
llvm.amdgcn.image.sample.c.d.o.3d
llvm.amdgcn.image.sample.c.l.o.1darray
llvm.amdgcn.image.sample.c.lz.1d
llvm.amdgcn.image.sample.c.lz.o.cube
llvm.amdgcn.image.sample.cd.1d
llvm.amdgcn.image.sample.cd.cl.3d
llvm.amdgcn.image.sample.cd.cl.o.3d
llvm.amdgcn.image.sample.cl.1darray
llvm.amdgcn.image.sample.cl.o.2d
llvm.amdgcn.image.sample.d.3d
llvm.amdgcn.image.sample.d.cl.2darray
llvm.amdgcn.image.sample.d.o.2d
llvm.amdgcn.image.sample.l.2darray
llvm.amdgcn.image.sample.lz.1d
llvm.amdgcn.image.sample.lz.o.1d
llvm.amdgcn.image.sample.o.3d
llvm.amdgcn.image.store.2dmsaa
llvm.amdgcn.implicit.buffer.ptr
llvm.amdgcn.interp.p1
llvm.amdgcn.mqsad.pk.u16.u8
llvm.amdgcn.rcp.legacy
llvm.amdgcn.s.dcache.wb
llvm.amdgcn.s.memrealtime
llvm.amdgcn.sdot2
llvm.amdgcn.tbuffer.store
llvm.amdgcn.workgroup.id.x
llvm.amdgcn.workitem.id.x
llvm.arm.crc32cw
llvm.arm.hint
llvm.arm.ldrexd
llvm.arm.mrc2
llvm.arm.neon.sha1m
llvm.arm.neon.sha256su1
llvm.arm.neon.vcvtas
llvm.arm.neon.vcvtfxs2fp
llvm.arm.neon.vhsubs
llvm.arm.neon.vld2dup
llvm.arm.neon.vmaxs
llvm.arm.neon.vmulls
llvm.arm.neon.vpmins
llvm.arm.neon.vqmovns
llvm.arm.neon.vqrshiftu
llvm.arm.neon.vqshifts
llvm.arm.neon.vrintn
llvm.arm.neon.vrsqrte
llvm.arm.neon.vst1x4
llvm.arm.neon.vst4lane
llvm.arm.qadd16
llvm.arm.sadd16
llvm.arm.shsub16
llvm.arm.smladx
llvm.arm.smuad
llvm.arm.smulwt
llvm.arm.stc
llvm.arm.strex
llvm.arm.uhsax
llvm.arm.uqsax
llvm.arm.usub8
llvm.arm.vcvtr
llvm.hexagon.A2.addh.h16.ll
llvm.hexagon.A2.addh.l16.sat.hl
llvm.hexagon.A2.andp
llvm.hexagon.A2.combine.ll
llvm.hexagon.A2.minup
llvm.hexagon.A2.orir
llvm.hexagon.A2.subh.h16.hh
llvm.hexagon.A2.subh.h16.sat.hl
llvm.hexagon.A2.svaddhs
llvm.hexagon.A2.svsubuhs
llvm.hexagon.A2.tfrpi
llvm.hexagon.A2.vaddb.map
llvm.hexagon.A2.vavghr
llvm.hexagon.A2.vavgw
llvm.hexagon.A2.vcmpwgt
llvm.hexagon.A2.vmaxh
llvm.hexagon.A2.vnavghcr
llvm.hexagon.A2.vrsadub
llvm.hexagon.A2.vsubws
llvm.hexagon.A4.andnp
llvm.hexagon.A4.cmpheq
llvm.hexagon.A4.combineri
llvm.hexagon.A4.rcmpneqi
llvm.hexagon.A4.tlbmatch
llvm.hexagon.A4.vcmpwgtui
llvm.hexagon.A4.vrminuw
llvm.hexagon.C2.bitsclr
llvm.hexagon.C2.cmpgei
llvm.hexagon.C2.mask
llvm.hexagon.C2.orn
llvm.hexagon.C4.and.or
llvm.hexagon.C4.cmplte
llvm.genx.GenISA.PatchConstantOutput
LLVM_OVERRIDE_PRODUCER
DW_OP_mul
__lshrhi3
DW_OP_ne
/// End Inlined ASM
DW_OP_lit14
__divqi3
DW_OP_lit30
DW_OP_reg6
DW_OP_reg14
__umodhi3
DW_OP_reg30
__adddf3
DW_OP_breg14
__mulsf3
DW_OP_breg30
DW_OP_nop
DW_OP_implicit_value
__powitf2
DW_ATE_address
__gnu_h2f_ieee
DW_ATE_UCS
__truncxfdf2
DW_LANG_C99
DW_LANG_Python
DW_LANG_Rust
__fixtfti
DW_CC_pass_by_reference
__fixunsxfsi
igc-dp-to-fp-load-store
__floatsitf
R_WEBASSEMBLY_MEMORY_ADDR_LEB
__builtin_IB_atomic_inc_global_i64
__floatundidf
^(\.[0-9]+|[0-9]+(\.[0-9]*)?)([eE][-+]?[0-9]+)?$
__eqsf2
MT1R_T
__gedf2
MT1A_A64_UI4x2
MT2R_BS
MT_CC_DWS
MTRA_TA
MT1A_UF
__llvm_memcpy_element_unordered_atomic_16
Untyped Surface Read
__llvm_memset_element_unordered_atomic_8
A64 Block Read
Unaligned Oword Block Read Sampler Cache
Untyped Atomic Float Operation
__sync_fetch_and_add_8
air.set_buffer_visible_function_table
__sync_fetch_and_and_1
aligned oword block write
__sync_fetch_and_or_16
on (wait for fence commit)
 flushing
.dcti
__sync_fetch_and_max_16
__sync_fetch_and_umax_8
__sync_fetch_and_min_4
HandleLoadStoreInstructionsPass
__atomic_load_1
a64 dual block 
 hword
7122
__atomic_exchange_16
__atomic_fetch_add_1
atomic 32-bit integer (slot group high)
MSDUW_DWS
44777
unmonitor event
__atomic_fetch_xor_1
__atomic_fetch_xor_16
__atomic_fetch_nand_8
.shl.merge.inner.hi
invalid hexadecimal floating-point constant: expected at least one exponent digit
simd32/64
unterminated single quote
higher
missing expression
invalid assignment to '
sample with lod forced to 0
.shl.inner.true.branch
sample_deinterlace
.octa
unsupported DC2 op
4 OWords
DataElements:MDC_DWS_DS
Workaround fmax/fmin
DataElements:MDC_DS
.weak_definition
preserve-nan
.code16
64b integer compare and swap
atomic_iinc
.ifne
atomic_umax
.ifdef
SlotGroup:MDC_SG3
.line
true
GED failed to create instruction template
FlagRegNum
src0: unsupported type for ternary align1 encoding
Src0RegFile
.cfi_offset
DstRegNum
.cfi_return_column
NoPreempt not supported on this platform (dropping)
invalid value
.noaltmacro
invalid region horizontal stride on src1
.dc.s
Src2RepCtrl
.dcb.x
11read_imagef14ocl_image3d_ro11ocl_samplerDv4_fS1_S1_
, rd:
MathMacroExt
assembler local symbol '
invalid use of pseudo-symbol '.' as a label
unexpected token in '.if' directive
Preserve NAN (default false)
Encountered a .elseif that doesn't follow an .if or  an .elseif
11read_imagei14ocl_image3d_ro11ocl_samplerDv4_fS1_S1_
xga64
xbl128
' does not exist for macro '
expected identifier
invalid alignment value
IGC Load Shrink
be_sp
destination register ARF access requires {Switch} ThreadCtrl
TRIVIAL_BC_RA
packed_ushort4
unexpected token in '.include' directive
no matching '.endr' in definition
The add instruction performs component-wise addition of src0 and src1 and stores the results in dst.
Addition of two floating-point numbers follows rules in add (IEEE mode) or add (ALT mode).
Format:
[(pred)] add[.cmod] (exec_size) dst src0 src1
Use a source modifier with add to implement subtraction.
Arithmetic Shift Right
bfi1
in '
Break
inconsistent use of MD5 checksums
The cmpn instruction performs component-wise special-NaN comparison of src0 and src1 and stores the results in the selected flag register and in dst. It takes component-wise subtraction of src0 and src1, evaluating the conditional signals including NS based on the conditional modifier, and storing the conditional flag bits in bit-packed form in the destination flag register and all bits of dst channels. If the dst is not null, for the enabled channels, then all bits of the destination channel will contain the flag value for the channel. When the instruction operates on packed word format, one general register may store up to 16 such comparison results. In DWord format, one general register may store up to 8 results.
A conditional modifier must be specified; the conditional modifier field cannot be 0000b. More information about the conditional signals used is in the Creating Conditional Flags section.
For each enabled channel 0b or 1b is assigned to the appropriate flag bit and 0/all zeros or all ones (e.g, byte 0xFF, word 0xFFFF, DWord 0xFFFFFFFF) is assigned to dst.
Min/Max instructions use cmpn to select the destination from the input sources (see the Min Max of Floating Point Numbers section for details).
Format:
[(pred)] cmpn[.cmod] (exec_size) dst src0 src1
isa number less than zero
The endif instruction terminates an if/else/endif block of code. It restores execution to the channels that were active prior to the if/else/endif block.
The endif instruction is also used to hop out of nested conditionals by jumping to the end of the next outer conditional block when all channels are disabled.
The following table describes the 16-bit JIP. In GEN binary, JIP is at location src1 and must be of type W (signed word integer). JIP must be an immediate operand, it is a signed 16-bit number. This value is added to IP pre-increment.
Format:
endif JIP
Find First Bit from MSB Side
expected line number after 'inlined_at'
unassigned file number in '
unknown sub-directive in '.cv_loc' directive
UnifiedReturnBlock
 in '.cv_fpo_data' directive
IDIV
IQOT
' is already defined
RSQT
unexpected token in '.end' directive
expected comma
Return
rndu
The sad2 instruction takes source data channels from src0 and src1 in groups of 2-tuples. For each 2-tuple, it computes the sum-of-absolute-difference (SAD) between src0 and src1 and stores the scalar result in the first channel of the 2-tuple in dst.
The results are also stored in the accumulator register. The destination operand and the accumulator maintain 16 bits per channel precision.
The destination register must be aligned to even word (DWord). The even words in the destination region will contain the correct data. The odd words are also written but with undefined values.
Format:
[(pred)] sad2[.cmod] (exec_size) dst src0 src1
Send Message
' (no symbols present)
air.get_quadgroups_per_threadgroup
invalid modifier '
.data
.scl
sends
.ashr.merge.inner.lo
sinl
.seh_setframe
binary size is too small
IGA INTERNAL ERROR: 
unexpected Align1Ternary in current platform
invalid dst implicit accumulator reference (in ChEn)
GED reports invalid value for 
' is already linkonce
UnifiedRetVal
DW_AT_is_optional
.lsym
.popsection
NoPreempt not supported on given platform
.const
Q3 is obsolete; use M16 in execution offset: e.g. op (8|M16) ...
.ashr.inner.true.branch
expected instruction, block, or EOF
.thread_local_variable_pointer
expected operation subfunction
expected flag modifier function
.objc_protocol
destination region argument
.symbol_stub
acc6
.build_version
expected ,
syntax error in region (vertical stride)
-debug
unexpected token in '.section' directive
igc-loop-dce
section "
unary send prohibits src1 argument
can't open secure log file: 
37intel_work_group_vme_mb_multi_query_4PU3AS3jjjDv2_jDv2_iS2_14ocl_image2d_ro14ocl_image2d_ro11ocl_sampler
parse error
image2d_array_depth_t
expected string in '
VISA Legalizer
__cat_cls_meth
fence
.trunc
fcmp
__picsymbol_stub
vISA_GenerateISAASM
invalid OS minor version number
vISA_dumpNewSyntax
tvos
vISA_ISAASMNamesFile
Print PassManager debugging information
.local
print-before-all
DPEmusext
fini_array
 -*- '
llvm_call_graph_profile
 Analyses:
read
vISA_InsertHashMovs
SCC (
vISA_HashVal1
expected a comma
Maximum size for the name of non-global values.
Cannot represent a difference across sections
createMessagePhasesV@
cycleCounter@
FK_Data_4
.lsext
igc-legalization
reducedIndex
Only global arrays can have appending linkage!
FK_Data_Add_2
Attribute 'sret' is not on first or second parameter!
Default for platform
Attributes 'byval', 'inalloca', 'inreg', 'nest', and 'sret' are incompatible!
.u2f.roudning.branch
swifterror value when used in a callsite should be marked with swifterror attribute
__svml_sinf4
invalid number of bytes
invalid template parameter
cannot have fixups in virtual section!
line specified with no file
IGC 64-bit ops emulation
invalid type ref
<stdin>
PHI nodes must have at least one entry.  If the block is dead, the PHI should be removed!
Segment for file '
AS_SECURE_LOG_FILE
.group
Symbol: 
Reference to undefined temporary symbol 
Range types must match instruction type!
Called function is not pointer to function type!
Multiple gc-transition operand bundles
alignment of arg 0 of memory intrinsic must be 0 or a power of 2
Mark readonly load
TPREL
GOTPAGEOFF
GenOptLegalizer
gc.relocate operand #3 must be integer offset
masked_load: return must match pointer type
explicit_arg_num
diff16
highesta
invalid llvm.dbg.
gc.statepoint number of arguments to underlying call must be constant integer
gc.relocate connected to wrong gc.statepoint
dtpmod
img_access_float_coords
implicit_arg_desc
EH pad must be jumped to via an unwind edge
Changes indirect calls to direct calls if possible
Alloca array size must have integer type
got@dtprel
GEP base pointer is not a vector or a vector of pointers
got@tlsld@l
atomicrmw instructions cannot be unordered.
HI16
Type too small for SExt
DW_AT_MIPS_software_pipeline_depth
SIToFP source and dest vector length mismatch
' could not be evaluated in a subtraction expression
IntToPtr Vector width mismatch
MCDataFragment
Invalid operand types for ICmp instruction
musttail call must precede a ret with an optional bitcast
EH pads can't handle each other's exceptions
image1d_buffer
 bytes)
 NumValues:
Legalization Pass
denorm_exp_loop_end
module flag identifiers must be unique (or of 'require' type)
-replaceIndirectCallWithJmpi
Imm:
-hashmovs1
memoryfence@
mov_identity@
names_begin
namespac_begin
Cannot specify more than one option with cl::ConsumeAfter!
opencl_vec_type_hint
Can specify at most 
image2d_array_depth
__debug_inlined
Comma separated list of debug counter skip and count
.rodata.cst8
view-background
.debug_pubtypes
.debug_loc
.debug_names
.apple_types
Allocation failed
iwmmxt
sampleLptr@
.stack_sizes
.debug$H
skel_string
.drectve
.gfids$y
PurgeMetaDataUtilsPass
Low Precision Opt
llvm.genx.GenISA.cmpxchgatomicstructured
v8.4a
,#alloc
Address space alias analysis
liveness
mach-o section specifier requires a segment and section separated by a comma
GenXCodeGenModule
S_REGULAR
simdMediaBlockWrite@
simdMediaRegionCopy@
lazy_symbol_pointers
simdSetMessagePhaseV@
coalesced
S_INTERPOSING
S_LAZY_DYLIB_SYMBOL_POINTERS
S_THREAD_LOCAL_VARIABLES
storeraw_indexed@
S_ATTR_PURE_INSTRUCTIONS
ABCDEFGHIJKLMNOPQRSTUVWXYZabcdefghijklmnopqrstuvwxyz0123456789
storestructured2@
S_ATTR_DEBUG
unsupported directive in streamer
all .cv_loc directives for a function must be in the same section
subslice_id@
Chained unwind areas can't have handlers!
frame offset must be less than or equal to 240
If present, PushMachFrame must be the first UOP
Symbol name with unsupported characters
, Sym=
SubroutineInliner
igc-low-precision-opt
__builtin_IB_atomic_sub_global_i32
REG_NOMATCH
REG_ECTYPE
REG_EPAREN
avr_intrcc 
REG_INVARG
; uselistorder directives
usubb@
target triple = "
btver2
!DILocation(
Default
MetaData
Child timed out but wouldn't die
!DILexicalBlock(
DW_TAG_null
!DIObjCProperty(
DW_TAG_structure_type
__builtin_IB_atomic_min_local_u32
DW_TAG_base_type
uaddc@
DW_TAG_variable
 within 
DW_TAG_generic_subrange
unordered
wait
 inbounds
pseudo_kill
 xor
Lowers GEP into primitive ones
LowPrecisionOpt Pass
constant 
thread_local(localdynamic) 
ifunc 
 instructions are compacted.
", hash: (
 = gv: (
DW_AT_call_return_pc
wait
, aliasee: 
, readOnly: 
DW_AT_sf_names
__builtin_IB_atomic_xor_local_i32
DW_AT_GNU_pubnames
INVALID opcode 
, bitMask: 
, bit: 
  { 
stack-probe-size
pmovsx
min.cond
DW_OP_lit2
Objective-C Class Properties
^arm\.neon\.vst([1234]|[234]lane)\.v[a-z0-9]*$
21ocl_image2darraydepth
empty-set
Address space 0 can never be non-integral
Missing alignment specification for pointer in datalayout string
Sized aggregate specification in datalayout string
Metadata Utils Wrapper
Invalid ABI alignment, must be a power of 2
Expected token before separator in datalayout string
Allocation failed
DIFlagVirtual
DIFlagObjcClassComplete
DW_ATE_signed
DIFlagNoReturn
DIFlagFixedEnum
NoDebug
Enable optimization remarks from passes whose name match the given regular expression
llvm.used
 at line 
 (hotness: 
powf
R_WEBASSEMBLY_FUNCTION_INDEX_LEB
allOnes
singleImpl
Inorder PostDominator Tree: 
(badref), 
SLMSize
Dominator Tree Construction
UserDefined
__builtin_IB_get_local_id_y
__builtin_IB_get_local_size
llvm.genx.
igc-metadata-utils-wrapper
_AUTO_GENERATED_IF_LABEL_
virtual_binding_table_ds
local_size_z
global_offset_x
__builtin_IB_atomic_sub_local_i16
base_patch
variable expected to be numbered '%
afterRemoveUnreachableBlocks
before_doCFGStructurizer
air.atomic_fetch_and_explicit_texture
air.atomic_fetch_xor_explicit_texture
air.get_unique_identifier_command_buffer
air.get_unique_identifier_render_pipeline_state
Collect information related to hull shader
bindless_image_cube_depth_t
__MERGED_FRET_EXIT_BLOCK_f
texture2d
texturecube_array
depth2d_array
UnknownKernel
texture1d
igc-collect-hull-shader-properties
resTy
digraph UnknownKernel
vararg
MoveStaticAllocasPass
cannot load symbol cmc_free_compile_info
ICLLP
opencl.ocl.version
Lower inputs outputs for hull shader
MetaData Utils Wrapper
Invalid TYPE table
Alias and aliasee types don't match
Invalid calling convention ID
</TD></TR>
Never resolved function from blockaddress
igc-hull-shader-lowering
Invalid constant type
<TR><TD ALIGN="LEFT"><FONT color="
EXTRACTVAL: Invalid array index
INSERTVAL: Invalid array index
Callee is not a pointer
Personality function mismatch
Callee is not a pointer type
Clear tessellation factors
Insufficient function protos
//.kernel 
Malformed block
Unexpected end of file
//.options 
/System/Library/Frameworks/OpenCL.framework/Resources/
igc-cleartessfactors
types-legalization-pass
//.spill size 
less-precise-fpmad
no-nans-fp-math
instructions returning void cannot have a name
deviceEnqueueGetBlockSimdSize
map::at:  key not found
PtrDstToInt
SampleCmpToDiscard
.code
igc-add-implicit-args
legacy
igc-callgraphscc-analysis
.end_code
metadata
Layout blocks
CorrectlyRoundedDivSqrt
qnan
extractvalue operand must be aggregate type
igc-break-const-expr
Invalid Pass 
float4x2
OH, 
a64c
bool3
long3
packed_long3
ulong3
packed_ulong3
double3
12read_imageui14ocl_image3d_ro11ocl_samplerDv4_fS_S_
: numeric label targets the middle of an instruction
invalid getelementptr indices
packed_ushort3
Unsupported required sub group size
LOCAL_ROUND_ROBIN_BC_RA
uint3
packed_uint3
short3
HYBRID_BC_RA
int3
igc-ldshrink
half3
GRAPH_COLORING_RR_RA
const
__global
float3
ImplicitGlobalId
air.location_index
air.threads_per_threadgroup
air.stage_in_grid_size
air.thread_index_in_quadgroup
12write_imagei16ocl_image2darrayDv4_iS_
Align16
.emulation.
cond_dim2_true
AIR Conversion
mainFunc
MaxNumOfOutputSignatureEntries
max-work-group-size
for arguments marked with raster_order_group, emit sendc
denorm_or_zero_end
-fp32-correctly-rounded-divide-sqrt
NoMask
rsqrt_chan
air.get_dispatch_simdgroups_per_threadgroup
air.get_simdgroup_index_in_threadgroup
Compacted
unordered_map::at: key not found
LiveVarsAnalysis
air.set_pipeline_state_compute_command
air-fast-flag-propagation-mark-pass
AirFastFlagPropagationResolve
duplicate case value in switch
rg8unorm
rgba8unorm
12write_imagei14ocl_image3d_woDv4_iiS_
half4x3
visible_function_table
expected 'from' after cleanupret
float4x4
air.simdgroup_index_in_threadgroup
bfrev
output
29intel_work_group_vme_mb_queryPU3AS3jDv2_iS1_14ocl_image2d_ro14ocl_image2d_ro11ocl_sampler
igc-air-legalize-resource-addrspace
TessInputControlPointCount
FP16DivWorkaround
igc-check-unresolved-builtin-functions
igc-air-samplers
AirResolveInlineSamplerWA
LivenessAnalysis
SPIR to IGC metadata translator
math
air.arg_unused
air.center
igc-air-metadata-parse
igc-code-gen-context-wrapper
invalid type for alloca
Translate AIR Builtins
malformed load/store mnemonic suffix
register range
address model
if.else
expected ',' after cmpxchg address
IGC Loop canonicalization
igc-spir-metadata-translation
__destructor
catchswitch
sdiv
zext
uitofp
call
shufflevector
WaveClustered@
gc-transition
error
print pass details when it is executed
Print IR after each pass
: IR instruction count changed from 
' is not initialized.
*** IR Dump Before 
Executing Pass '
' on Module '
time-passes
ModulePass Manager
synthetic_function_entry_count
cmpxchgatomicstructured@
running pass 
unexpected token in '.version' directive
Allocation failed
Struct tag metadata must have either 3 or 4 operands
Cycle detected in struct path
Functions cannot return aggregate values!
Calling convention does not support varargs or perfect forwarding!
Function declaration shouldn't have a personality routine
function must have a single !prof attachment
Global is marked as dllimport, but not external
Attributes 'byval', 'inalloca', 'nest', 'sret', 'nocapture', 'returned', 'swiftself', and 'swifterror' do not apply to return values!
inalloca isn't on the last parameter!
Attribute 'optnone' requires 'noinline'!
Attributes 'zeroext and signext' are incompatible!
Attribute 'swifterror' only applies to parameters with pointer type!
expected string with name of the !prof annotation
location requires a valid scope
invalid subrange count
invalid composite elements
invalid checksum
invalid global variable list
invalid subprogram declaration
subprogram definitions must have a compile unit
invalid static data member declaration
Expected valid value
PHI node entries do not match predecessors!
Instruction not embedded in basic block!
Cannot invoke an intrinsic other than donothing, patchpoint, statepoint, coro_resume or coro_destroy
fpmath takes one operand!
align takes one operand!
Instruction does not dominate all uses!
Intervals are not in order
Switch constants must all be same type as switch value!
Incorrect number of arguments passed to called function!
swifterror argument for call has mismatched parameter
Funclet bundle operands should correspond to a FuncletPadInst
Intrinsic name not mangled correctly for type arguments! Should be: 
element size of the element-wise unordered atomic memory intrinsic must be a constant int
incorrect alignment of the source argument
llvm.localescape only accepts static allocas
gc.relocate must return a pointer or a vector of pointers
gc.statepoint: insufficient arguments
gc.relocate: statepoint derived index doesn't fall within the 'gc parameters' section of the statepoint call
masked_store: mask must be vector
experimental_deoptimize return type must match caller return type
 intrinsic expression
dbg intrinsic without variable
gc.statepoint doesn't support wrapping non-void vararg functions yet
gc.statepoint number of deoptimization arguments must be constant integer
CleanupReturnInst needs to be provided a CleanupPad
CatchSwitchInst must unwind to an EH block which is not a landingpad.
A single unwind edge may only enter one EH pad
Logical operators only work with integral types!
Load cannot have Release ordering
Non-atomic load cannot have SynchronizationScope specified
Invalid indices for GEP pointer type!
cmpxchg instructions cannot be unordered.
Argument value type does not match pointer operand type!
ZExt only operates on integer
FPToUI result must be integer or integer vector
UIToFP source must be integer or integer vector
fptrunc source and destination must both be a vector or neither
DestTy too small for FPExt
AddrSpaceCast must be between different address spaces
Unwind edges out of a funclet pad must have the same unwind dest
Invalid operand types for FCmp instruction
cannot guarantee tail call due to mismatched parameter counts
Select values must have same type as select instruction!
LandingPadInst needs at least one clause or to be a cleanup.
'common' global must have a zero initializer!
wrong type for intrinsic global variable
unrecognized named metadata node in the llvm.dbg namespace
invalid behavior operand in module flag (unexpected constant)
expected a MDNode triple
expected an integer constant
-generateDebugInfo
Display list of all available options
Print all option values after command line parsing
' is all messed up!
This argument does not take a value.
Instead, it consumes any positional arguments until the next recognized option.
requires a value!
OVERVIEW: 
 <subcommand> -help" to get more help on a specific subcommand
7.0.0
 Added Flags: 
Trying 'xdg-open' program... 
 [subcommand]
??3@YAXPEAX_K@Z
??_U@YAPEAX_KAEBUnothrow_t@std@@@Z
indvar
armv3m
5TEJ
armv6t2
armv7-a
armv7-r
.tls$
'.fill' directive with negative repeat count has no effect
__sinpif
__sqrtf_finite
__strcpy_chk
Error opening info-output-file '
14ocl_image1d
   --System Time--
misc
mach-o section specifier has a malformed stub size
spir64
freebsd
windows
cuda
gnuabin32
eabi
armv7ve
igc-agg-arg
decULL:"
uhex:"
malloc_cont
abcdefghijklmnopqrstuvwxyz
ABCDEFGHIJKLMNOPQRSTUVWXYZ
newline
percent-sign
comma
three
eight
reverse-solidus
left-brace
vertical-line
trailing backslash (\)
braces not balanced
REG_BADRPT
*** unknown regexp error code ***
irparse
skylake
k6-3
pentium-mmx
yonah
k8-sse3
TEMP
!DISubroutineType(
' for 
GenIR Lowering
DW_TAG_member
DW_TAG_union_type
DW_TAG_module
DW_TAG_constant
DW_TAG_subprogram
DW_TAG_restrict_type
DW_TAG_imported_unit
DW_TAG_call_site
DW_TAG_class_template
DW_TAG_BORLAND_Delphi_dynamic_array
DW_AT_ordering
DW_AT_visibility
DW_AT_default_value
DW_AT_upper_bound
DW_AT_base_types
DW_AT_frame_base
DW_AT_specification
DW_AT_data_location
DW_AT_trampoline
DW_AT_picture_string
DW_AT_pure
DW_AT_string_length_byte_size
DW_AT_dwo_id
DW_AT_call_parameter
DW_AT_noreturn
DW_AT_MIPS_loop_unroll_factor
DW_AT_MIPS_has_inlines
DW_AT_src_coords
DW_AT_GNU_all_call_sites
DW_AT_BORLAND_property_read
DW_AT_BORLAND_property_default
DW_AT_BORLAND_closure
DW_AT_APPLE_block
DW_AT_APPLE_property
DW_OP_const2s
DW_OP_pick
DW_OP_minus
DW_OP_shr
DW_OP_ge
DW_OP_lit5
DW_OP_lit12
DW_OP_lit21
DW_OP_lit27
DW_OP_reg5
DW_OP_reg12
DW_OP_reg21
DW_OP_reg25
DW_OP_breg5
DW_OP_breg12
DW_OP_breg21
DW_OP_breg27
DW_OP_xderef_size
DW_OP_call_frame_cfa
DW_OP_regval_type
DW_OP_GNU_push_tls_address
DW_ATE_unsigned_char
DW_ATE_decimal_float
DW_LANG_Ada83
DW_LANG_Pascal83
DW_LANG_D
DW_LANG_C_plus_plus_11
DW_LANG_Fortran08
DW_LANG_Mips_Assembler
v6kz
 prologue 
amdpal
33IGIL_EnqueueKernelWithLocalParams9ocl_queueiPijPvjS0_S0_jS0_j9ndrange_ti12ocl_clkevent
R_WEBASSEMBLY_GLOBAL_INDEX_LEB
Strip specified level of directory name from source path in the profile counter name for static functions.
verify-dom-info
MT0R_OWUB
MT0W_DWS
MT1A_TA4x2
MT1R_A64_SB
MT2R_A64_US
MT_CC_OWUB
MTRR_TS
MT0R_US
OWord Dual Block Read
Byte Scattered Write
Untyped Surface Write
A64 Untyped Surface Read
Dword Scattered Read Constant Cache
Untyped Atomic Operation
base_vertex
MessageType
7032
byte scattering write
7069
L3 implies L1 flush
L3 Flush Targets
 instruction data
HWordOffset
a64 byte scattering write
a64 scattering write
7075
7039
_aligned
float atomic
7155
7149
7046
7099
disabled
44778
unmonitor
unsupported RC op
.f16
 replicated SIMD16
 with Per-Coarse Pixel PS outputs enable
.lrts
invalid sampler SIMD mode
simd16h
sample gradient
sample_lod
sample_gather4_po
sample_min
sample load mcs auxilary data
sample_unorm_killpix
sample 8x8
Mlen
2 OWords
Fill 2 bytes per DW
_simd
stateless
A64 
DataElements:MDC_A64_DB_HW
invalid MDC_SM3
atomic_fcas
atomic_icas
logical XOR
integer add
atomic_smax
typed_load
SG8U
included (two register header)
a64 dual block read/write unsupported
ClearTessFactors
PredInv
DstHorzStride
Src0Width
MsgDesc
DstAddrSubRegNum
Src0AddrImm
%s: %s%d number out of range
uip label invalid
no compact form
Src1AddrMode
Src1AddrSubRegNum
invalid region width on src0
Src2SrcMod
src%d: invalid operand kind
Src0TernaryImm
expected ')' in extractvalue constantexpr
MathMacroExt::INVALID
on <h> region v must be Region::VT_INVALID
|ChannelOffset
-<ERR>
float2x2
scratch
xbl256
HW64
HWSB(0x
CMask(0x
sg4x2
: PC 
register regioning restriction warning: If vertical stride and horizontal stride are 0, width must be 1.
see Programmer's Reference Manual (Restriction 2.6)
Channel Enable
Timestamp Register
Bit Field Extract
Bit Field Reverse
The calla instruction jumps to a subroutine. It can be predicated or non-predicated. If non-predicated, all enabled channels jump to the subroutine. If predicated, only the channels enabled by PMask jump to the subroutine; the rest of the channels move to the next instruction after the calla instruction. If none of the channels jump into the subroutine, the calla instruction is treated as a nop.
In case of a jump, the call instruction stores the return IP onto the first DWord of the destination register and stores the CallMask in the second DWord of the destination register.
If SPF is ON, none of the PcIP are updated.
When SPF is on, the predication control must be scalar.
The difference between calla and call is that calla uses JIP as the IP value rather than adding it to the IP value.
Format: [(pred)] calla (exec_size) dst JIP
cmpn
End If
The f32to16 instruction converts the single precision float in src0 to half precision float and storing in the lower word of each channel in dst.
Because this instruction does not have a 16-bit floating-point type, the destination data type must be Word (W).
Format:
[(pred)] f32to16[.cmod] (exec_size) dst src0
The frc instruction computes, component-wise, the truncate-to-minus-infinity fractional values of src0 and stores the results in dst. The results, in the range of [0.0, 1.0], are the fractional portion of the source data. The result is in the range [0.0, 1.0] irrespective of the rounding mode. Floating-point fraction computation follows the rules in the following tables, based on the current floating-point mode.
Format:
[(pred)] frc[.cmod] (exec_size) dst src0
missing required field 'expr'
llvm.genx.GenISA.URBRead
rs4gc-clobber-non-live
GsOutputClipDistanceMask
Sparse Conditional Constant Propagation
file number less than one
.sroa.
__builtin_IB_simd_media_block_write_8_l
__builtin_IB_get_image_bti
DW_TAG_BORLAND_Delphi_set
bonus-inst-threshold
invalid type for null constant
Forward switch condition to phi ops (default = false)
expected end of statement in '.warning' directive
spec-exec-max-speculation-cost
__builtin_IB_sub_group_reduce_OpGroupFAdd
memchr
utimes
fputc_unlocked
Collect GS Properties
Convert noalias attributes to metadata during inlining.
unexpected modifier on variable reference
maskedptr
__builtin_IB_sub_group_scan_OpGroupFMin
Verify loop lcssa form (time consuming)
__builtin_IB_get_local_id_z
powl
__flag_end_marker
: invalid operation format
dst has wrong region for binary normal form
dst: invalid math macro register (from ChEn)
swizzle Y could not be retrieved
src%d: invalid addressing mode
_Z41get_kernel_max_sub_group_size_for_ndrange
argument to operator must be integral
snan
NoDDChk not supported on given platform
Compacted mutually exclusive with Uncompacted/NoCompact
H2 is obsolete; use M16 in execution offset: e.g. op (16|M16) ...
N6 is obsolete; use M20 in execution offset: e.g. op (4|M20) ...
integer literal too large
invalid predication control
unexpected . (expected execution size)
src0 must be a notification register
invalid destination register
immediate offset is out of range; must be in [
send operand region has no effect and is deprecated syntax
acc4
unexpected |
invalid region width
register access granularity too small type
invalid send destination register
extended message descriptor is typeless
INTERNAL ERROR: parsing float literal
input in flex scanner failed
malformed register range (high register must be >= low)
surface index is out of bounds
expected %d address registers
atomic store cannot use Acquire ordering
iga_assemble call uses deprecated options  (error_on_compact_fail or autoset_deps); see newest iga.h header file for updated fields
llvm.amdgcn.image.sample.c.cd.cl.o.cube
llvm.amdgcn.image.sample.c.cd.o.1darray
llvm.amdgcn.image.sample.c.cl.1d
llvm.amdgcn.image.sample.c.cl.2d
llvm.amdgcn.image.sample.c.cl.o.2d
llvm.amdgcn.image.sample.c.cl.o.cube
llvm.amdgcn.image.sample.c.d.2darray
llvm.amdgcn.image.sample.c.d.3d
llvm.amdgcn.image.sample.c.d.cl.o.1d
llvm.amdgcn.image.sample.c.d.cl.o.2darray
llvm.amdgcn.image.sample.c.d.o.1darray
llvm.amdgcn.image.sample.c.d.o.2darray
llvm.amdgcn.image.sample.c.l.2darray
llvm.amdgcn.image.sample.c.l.o.1d
llvm.amdgcn.image.sample.c.l.o.cube
39intel_work_group_vme_mb_multi_check_8x8PU3AS3jjjjDv2_iDv4_i14ocl_image2d_ro14ocl_image2d_ro14ocl_image2d_ro11ocl_sampler
llvm.amdgcn.image.sample.c.lz.o.1darray
llvm.amdgcn.image.sample.c.lz.o.3d
llvm.amdgcn.image.sample.c.o.2darray
llvm.amdgcn.image.sample.c.o.cube
llvm.amdgcn.image.sample.cd.cl.1d
llvm.amdgcn.image.sample.cd.cl.2darray
llvm.amdgcn.image.sample.cd.cl.o.2d
llvm.amdgcn.image.sample.cd.cl.o.2darray
llvm.amdgcn.image.sample.cd.o.2darray
llvm.amdgcn.image.sample.cl.1d
llvm.amdgcn.image.sample.cl.cube
llvm.amdgcn.image.sample.cl.o.1darray
llvm.amdgcn.image.sample.d.1d
llvm.amdgcn.image.sample.d.2darray
llvm.amdgcn.image.sample.d.cl.2d
45intel_work_group_vme_mb_multi_bidir_check_8x8PU3AS3jjjjDv2_ihhS1_14ocl_image2d_ro14ocl_image2d_ro14ocl_image2d_ro14ocl_image2d_ro11ocl_sampler
llvm.amdgcn.image.sample.d.cl.o.cube
llvm.amdgcn.image.sample.d.o.1darray
llvm.amdgcn.image.sample.l.1d
llvm.amdgcn.image.sample.l.2d
llvm.amdgcn.image.sample.l.o.2d
llvm.amdgcn.image.sample.l.o.cube
llvm.amdgcn.image.sample.lz.3d
llvm.amdgcn.image.sample.lz.cube
llvm.amdgcn.image.sample.o.1d
llvm.amdgcn.image.sample.o.2darray
llvm.amdgcn.image.store.2d
llvm.amdgcn.image.store.2darraymsaa
llvm.amdgcn.image.store.mip.2d
llvm.amdgcn.image.store.mip.cube
llvm.amdgcn.interp.mov
54intel_sub_group_avc_ime_evaluate_with_single_reference14ocl_image2d_ro14ocl_image2d_ro11ocl_sampler33intel_sub_group_avc_ime_payload_t
llvm.amdgcn.loop
llvm.amdgcn.mov.dpp
llvm.amdgcn.qsad.pk.u16.u8
llvm.amdgcn.rcp
llvm.amdgcn.rsq.legacy
llvm.amdgcn.s.dcache.inv.vol
llvm.amdgcn.s.getreg
llvm.amdgcn.s.incperflevel
llvm.amdgcn.sad.hi.u8
llvm.amdgcn.sbfe
llvm.amdgcn.sffbh
llvm.amdgcn.tbuffer.load
llvm.amdgcn.udot8
llvm.amdgcn.wave.barrier
llvm.amdgcn.workgroup.id.z
62intel_sub_group_avc_ime_evaluate_with_dual_reference_streamout14ocl_image2d_ro14ocl_image2d_ro14ocl_image2d_ro11ocl_sampler33intel_sub_group_avc_ime_payload_t
llvm.arm.clrex
llvm.arm.crc32ch
llvm.arm.dmb
llvm.arm.get.fpscr
llvm.arm.ldc2
llvm.arm.ldrex
llvm.arm.mcrr2
llvm.arm.mrc
llvm.arm.neon.aesmc
llvm.arm.neon.sha1h
llvm.arm.neon.sha256h
llvm.arm.neon.sha256su0
llvm.arm.neon.vacge
llvm.arm.neon.vcls
llvm.arm.neon.vcvtfp2hf
61intel_sub_group_avc_ime_evaluate_with_dual_reference_streamin14ocl_image2d_ro14ocl_image2d_ro14ocl_image2d_ro11ocl_sampler33intel_sub_group_avc_ime_payload_t49intel_sub_group_avc_ime_dual_reference_streamin_t
llvm.arm.neon.vcvtps
llvm.arm.neon.vhaddu
llvm.arm.neon.vld1x3
llvm.arm.neon.vld2
llvm.arm.neon.vld4
llvm.arm.neon.vmaxnm
llvm.arm.neon.vminu
llvm.arm.neon.vmullp
llvm.arm.neon.vpaddls
llvm.arm.neon.vpmaxu
llvm.arm.neon.vqaddu
llvm.arm.neon.vqdmull
llvm.arm.neon.vqrshiftns
llvm.arm.neon.vqrshifts
llvm.arm.neon.vqshiftnu
64intel_sub_group_avc_ime_evaluate_with_dual_reference_streaminout14ocl_image2d_ro14ocl_image2d_ro14ocl_image2d_ro11ocl_sampler33intel_sub_group_avc_ime_payload_t49intel_sub_group_avc_ime_dual_reference_streamin_t
llvm.arm.neon.vrhadds
llvm.arm.neon.vrintm
llvm.arm.neon.vrshiftn
llvm.arm.neon.vrshiftu
llvm.arm.neon.vshiftu
llvm.arm.neon.vst1x3
llvm.arm.neon.vst3lane
llvm.arm.neon.vst4
llvm.arm.neon.vtbx2
llvm.arm.qadd
llvm.arm.qsub
llvm.arm.qsub8
llvm.arm.shadd16
llvm.arm.shsax
llvm.arm.smlad
54intel_sub_group_avc_ref_evaluate_with_single_reference14ocl_image2d_ro14ocl_image2d_ro11ocl_sampler33intel_sub_group_avc_ref_payload_t
llvm.arm.smlsd
llvm.arm.smlsldx
llvm.arm.smultb
llvm.arm.smulwb
llvm.arm.ssat16
llvm.arm.ssub8
llvm.arm.stlex
llvm.arm.stlexd
llvm.arm.uasx
llvm.arm.uhasx
llvm.arm.uqadd16
llvm.arm.uqasx
llvm.arm.usat
llvm.arm.usub16
llvm.arm.uxtb16
52intel_sub_group_avc_sic_evaluate_with_dual_reference14ocl_image2d_ro14ocl_image2d_ro14ocl_image2d_ro11ocl_sampler33intel_sub_group_avc_sic_payload_t
llvm.hexagon.A2.add
llvm.hexagon.A2.addh.h16.lh
llvm.hexagon.A2.addh.h16.sat.ll
llvm.hexagon.A2.addh.l16.ll
llvm.hexagon.A2.addsat
llvm.hexagon.A2.andir
llvm.hexagon.A2.combine.hl
llvm.hexagon.A2.combine.lh
llvm.hexagon.A2.maxup
llvm.hexagon.A2.minu
llvm.hexagon.A2.not
llvm.hexagon.A2.or
llvm.hexagon.A2.sath
llvm.hexagon.A2.sub
llvm.hexagon.A2.subh.h16.sat.hh
__builtin_IB_convert_sampler_to_int
llvm.hexagon.A2.subp
llvm.hexagon.A2.svaddh
llvm.hexagon.A2.svnavgh
llvm.hexagon.A2.svsubhs
llvm.hexagon.A2.tfr
llvm.hexagon.A2.tfrp
llvm.hexagon.A2.vabsw
llvm.hexagon.A2.vabswsat
llvm.hexagon.A2.vaddw
llvm.hexagon.A2.vavghcr
llvm.hexagon.A2.vavguhr
llvm.hexagon.A2.vavguwr
llvm.hexagon.A2.vcmpheq
llvm.hexagon.A2.vcmpweq
llvm.hexagon.A2.vmaxb
__EnableSWSrgbWrites
llvm.hexagon.A2.vminuh
llvm.hexagon.A2.vnavgh
llvm.hexagon.A2.vnavgwr
llvm.hexagon.A2.vraddub.acc
llvm.hexagon.A2.vsubub
llvm.hexagon.A2.vsubw
llvm.hexagon.A2.zxth
llvm.hexagon.A4.andn
llvm.hexagon.A4.cmpbgt
llvm.hexagon.A4.cmpbgtui
llvm.hexagon.A4.cmphgtu
llvm.hexagon.A4.combineir
llvm.hexagon.A4.ornp
llvm.hexagon.A4.rcmpneq
llvm.hexagon.A4.round.rr.sat
_Z12get_group_idj
llvm.hexagon.A4.vcmphgti
llvm.hexagon.A4.vcmpwgti
llvm.hexagon.A4.vrmaxw
llvm.hexagon.A4.vrminuh
llvm.hexagon.C2.all8
llvm.hexagon.C2.any8
llvm.hexagon.C2.cmpeqi
llvm.hexagon.C2.cmpeqp
llvm.hexagon.C2.cmpgtui
llvm.hexagon.C2.cmpltu
llvm.hexagon.C2.muxri
llvm.hexagon.C2.or
llvm.hexagon.C2.vmux
llvm.hexagon.C4.and.andn
llvm.hexagon.C4.and.orn
igc-builtin-import
nearbyint
PAL[
DW_OP_const8u
DW_OP_swap
cvtu
Invalid weak external
DW_OP_shra
ctlz.trunc
__lshrti3
PreBIImportAnalysis
__ashrti3
llvm.ctlz.
__muldi3
BIImport
DW_OP_lit22
llvm.loop.vectorize.
__divdi3
__enqueue_kernel_basic
__udivsi3
Invalid address space, must be a 24bit integer
__modhi3
__enqueue_kernel_vaargs
DW_OP_reg22
Missing alignment specification in datalayout string
__umodti3
__enqueue_kernel_events_vaargs
__modti3
Invalid bit width, must be a 24bit integer
__subsf3
_Z14enqueue_kernel
DW_OP_breg22
not a number, or does not fit in an unsigned int
__multf3
enqueue_IB_kernel
__divxf3
DIFlagFwdDecl
===> Materialize Failure: 
DW_OP_deref_type
DIFlagObjectPointer
__extendxftf2
__powidf2
DIFlagVirtualInheritance
__trunctfhf2
MCSOptimization
DW_LANG_C_plus_plus
DIFlagThunk
__trunctfxf2
Loop Gating Optimization
__fixdfsi
LineTablesOnly
__fixxfdi
loop-gating
zeroext
Invalid regular expression '
__fixunssfti
GatingSimilarSamples
image1d_t
!Passed
__fixunstfti
Convert builtin functions from OpenCL to common GenISA
igc-workaround
DebugLoc
__floatdidf
igc-conv-ocl-to-common
__floattidf
Column
__floatunsidf
BuiltinsConverterFunction
Target
(no name)
__floatuntisf
CoordZ
__gcc_utoq
air-builtin-handler
__nesf2
CoordX
MT1W_US
Legalize Global Value Usages
__ltsf2
CoordY
__lesf2
__builtin_IB_get_num_groups
__gtsf2
floatColor
__unordsf2
stage_in_grid_origin_z
__llvm_memcpy_element_unordered_atomic_1
ColorX
__gcc_qgt
num_work_groups_x
__llvm_memmove_element_unordered_atomic_8
ColorY
Media Block Write
local_size_y
__sync_val_compare_and_swap_1
ColorZ
__sync_val_compare_and_swap_16
patch_index_buffer_offset
__sync_lock_test_and_set_8
ColorW
__builtin_IB_atomic_xchg_global_i16
air.get_global_buffer_visible_function_table
__sync_fetch_and_sub_2
Inconsistent use of image!
__sync_fetch_and_add_2
product
__sync_fetch_and_and_16
__builtin_IB_OCL_1d_ldui
7066
air.get_unique_identifier_texture
__sync_fetch_and_xor_4
__builtin_IB_OCL_1darr_ldui
__sync_fetch_and_nand_2
air.atomic_fetch_or_explicit_texture
__sync_fetch_and_max_1
__builtin_IB_OCL_2d_ldui
expected comdat keyword
sampler
air.atomic_fetch_add_explicit_texture
__builtin_IB_OCL_2darr_ldui
image3d_t
depth2d_ms
exp2l
__builtin_IB_OCL_3d_ldui
7034
bindless_image3d_t
__atomic_load_8
__builtin_IB_OCL_1d_ld
__atomic_store_2
bindless_image2d_array_t
__atomic_exchange
__builtin_IB_OCL_1darr_ld
7143
align
__atomic_compare_exchange_2
__builtin_IB_OCL_2d_ld
__atomic_exchange_4
tracepoint
__atomic_fetch_add_16
__builtin_IB_OCL_2darr_ld
__atomic_fetch_sub_8
igc-move-static-allocas
__atomic_fetch_and_4
__builtin_IB_OCL_3d_ld
__atomic_fetch_or_2
cmc_free_compile_info
__builtin_IB_OCL_2d_ldmcs
__sync_fetch_and_umin_8
opencl.compiler.ext.options
opencl.spir.version
__builtin_IB_OCL_2darr_ldmcs
__imp_
Expected a single module
SLOTGRP_LO
__builtin_IB_OCL_2d_ld2dms
invalid hexdecimal number
Expected a constant
Invalid global variable comdat ID
__builtin_IB_OCL_2darr_ld2dms
invalid binary number
Unknown attribute kind (
sample_resinfo
__builtin_IB_OCL_2d_ld2dmsui
sample gather4+pixel offset
Invalid value name
.equ
__builtin_IB_OCL_2darr_ld2dmsui
.string
Invalid instruction with no BB
.2byte
__builtin_IB_OCL_1d_sample_l
sample_flush
Insufficient operands to call
.double
__builtin_IB_OCL_1darr_sample_l
.balignw
INSERTVAL: Invalid struct index
.p2alignl
__builtin_IB_OCL_2d_sample_l
.extern
Invalid cast
.no_dead_strip
__builtin_IB_OCL_2darr_sample_l
image2d_array_t
Expect SubBlock
.lcomm
__builtin_IB_OCL_3d_sample_l
SimdMode:MDC_SM3
Invalid bitcode wrapper header
.rep
__builtin_IB_OCL_1d_sample_d
.bundle_align_mode
vec_type_hint
.ifeq
__builtin_IB_OCL_1darr_sample_d
atomic_isub
igc-legalize-function-signatures
.ifc
__builtin_IB_OCL_2d_sample_d
.ifle
Set builtin MetaData
.else
__builtin_IB_OCL_2darr_sample_d
 HWords from scratch base
KMPLOCK
.cv_file
__builtin_IB_OCL_3d_sample_d
.cv_inline_linetable
PrivateMemStatelessSize
.cv_filechecksums
__builtin_IB_OCL_1d_sample_lui
.uleb128
deviceEnqueueEventPool
.cfi_def_cfa
__builtin_IB_OCL_1darr_sample_lui
.sleb128
.cfi_remember_state
__builtin_IB_OCL_2d_sample_lui
Src1RegNum
sample_phase
.cfi_register
__builtin_IB_OCL_2darr_sample_lui
.macro
visaStackCall
.purgem
__builtin_IB_OCL_3d_sample_lui
src%d: unexpected register on this platform
size
.dc.a
__builtin_IB_OCL_1d_sample_dui
.warning
.dcb.b
__builtin_IB_OCL_1darr_sample_dui
BlockCoalescing
RestStage2
.ds.d
__builtin_IB_OCL_2d_sample_dui
.ds.w
.addrsig_sym
__builtin_IB_OCL_2darr_sample_dui
expected '(' after constantexpr cast
error: backend compiler failed build.
__builtin_IB_OCL_3d_sample_dui
image2d_buffer_t
float3x4
exp2f
__builtin_IB_write_1d_ui
packed_bool2
Encountered a .else that doesn't follow  an .if or an .elseif
__builtin_IB_write_1darr_ui
 levels deep.
packed_double2
invalid argument identifier for formal argument
__builtin_IB_write_2d_ui
packed_ulong2
too many positional arguments
__builtin_IB_write_2darr_ui
expected absolute expression
packed_long2
unknown token in expression
__builtin_IB_write_3d_ui
packed_uchar2
maximum bytes expression exceeds alignment and has no effect
__builtin_IB_write_2d_f
'.fill' directive with size greater than 8 has been truncated to 8
packed_char2
unable to emit symbol attribute
__builtin_IB_write_2darr_f
invalid '.comm' or '.lcomm' directive size, can't be less than zero
packed_ushort2
.abort detected. Assembly stopping.
__builtin_IB_frnd_ne
unexpected token in '.comm' or '.lcomm' directive
packed_short2
skip is negative
__builtin_IB_ftoh_rtn
packed_uint2
expected identifier in '.irp' directive
__builtin_IB_ftoh_rtp
expected comma in '.irpc' directive
packed_int2
unexpected token after expression in '.bundle_align_mode' directive
__builtin_IB_ftoh_rtz
The bfrev instruction component-wise reverses all the bits in src0 and stores the results in dst.
Format:
[(pred)] bfrev (exec_size) dst src0
packed_half2
explicit path specified, but no file number
__builtin_IB_dtoh_rtn
unexpected token after '.bundle_lock' directive option
packed_float2
unassigned file number in '.loc' directive
__builtin_IB_dtoh_rtp
Dot Product 2
constant
unsupported directive '.stabs'
__builtin_IB_dtoh_rtz
expected checksum kind in '.cv_file' directive
air.sample
expected function id in '
__builtin_IB_dtof_rtn
missing required field 'filename'
air.threads_per_simdgroup
air.instance_acceleration_structure
__builtin_IB_dtof_rtp
image2d_array_msaa_t
air.thread_execution_width
Line number less than zero in '.cv_inline_linetable' directive
__builtin_IB_dtof_rtz
The math instruction performs extended math function on the components in src0, or src0 and src1, and write the output to the channels of dst. The type of extended math function are based on the FC[3:0] encoding in the table below.
Format:
[(pred)] math (exec_size) dst src0 src1 <FC>
air.base_instance
.debug_frame
__builtin_IB_dtoi8_rtn
expected identifier in '.macro' directive
air.buffer
' has multiple parameters named '
__builtin_IB_dtoi8_rtp
igc.read_only_array
' in file, no current macro definition
__builtin_IB_dtoi8_rte
pointless default value for required parameter '
isGlobalSizeGT0
.warning directive invoked in source file
__builtin_IB_dtoi16_rtn
The not instruction performs logical NOT operation (or one's complement) of src0 and storing the results in dst.
This operation does not produce sign or overflow conditions. Only the .e/.z or .ne/.nz conditional modifiers should be used.
A register source operand can use a source modifier:
Any source modifier is numeric, optionally changing a source value s to -s, abs(s), or -abs(s) before the NOT operation.
Format:
[(pred)] not[.cmod] (exec_size) dst src0
TessInputControlPointCount
unexpected token in .reloc directive
__builtin_IB_dtoi16_rtp
expected double quoted string after .print
air-propagate-assumptions
literal value not a power of two greater then zero
__builtin_IB_dtoi16_rte
byte ptr 
denorm_or_zero
xword ptr 
__builtin_IB_dtoi32_rtn
air.get_thread_index_in_quadgroup
invalid escape sequence (unrecognized character)
__builtin_IB_dtoi32_rtp
acq_rel
air.get_dispatch_threads_per_threadgroup
vscanf
__builtin_IB_dtoi32_rte
vsnprintf
air.sampler_state
The not instruction performs logical NOT operation (or one's complement) of src0 and storing the results in dst.
This operation does not produce sign or overflow conditions. Only the .e/.z or .ne/.nz conditional modifiers should be used.
A register source operand can use a source modifier:
Any source modifier is logical, optionally changing a source value s to ~s (inverting all source bits). Such a source modifier is not particularly useful with the not instruction, as it changes the effect of not to just copying bits.
Format:
[(pred)] not[.cmod] (exec_size) dst src0
__builtin_IB_dtoi64_rtn
The smov instruction moves the components in src0 into dst.
For each enabled channel, copy src0 to dst. The immediate is used to selectively enable channels without using flags.
When predication is enabled, the predicate mask is not generated from the flags. Instead, the immediate is used to mask the execution mask. If any channel is enabled as a result of this masking, the instruction is executed.
When predication is not enabled, the immediate masks the execution mask. This provides flexibility to mask out any channel with an immediate.
Format:
[(pred)] smov[.cmod] (exec_size) dst src0 src1
When predication is disabled, the immediate provides the flexibility to perform a select operation without the use of flags.
When predication is enabled, the usage model provides flexibility to select any bit in the flag registers for predication for execution size of 1.
air.concurrent_dispatch_threadgroups_compute_command
.secrel32
__builtin_IB_dtoi64_rtp
.linkonce
AirFastFlagPropagationMark
.seh_startchained
__builtin_IB_dtoi64_rte
Output the .llvm generated from TransformBlocks pass
rgb9e5
.seh_savexmm
__builtin_IB_dtoui8_rtn
unexpected token in section switching directive
rg16snorm
conflicting section flags 'b' and 'd'.
__builtin_IB_dtoui8_rtp
same_size
instance_acceleration_structure
unrecognized COMDAT type '
__builtin_IB_dtoui8_rte
image2d_msaa_depth_t
half4x2
floor
__builtin_IB_dtoui16_rtn
vfabsf
air.quadgroup_index_in_threadgroup
right operand to operator must be floating point (append a .0 to force floating point)
__builtin_IB_dtoui16_rtp
NaN payload overflows
air.vertex
.secure_log_reset
__builtin_IB_dtoui16_rte
EOT is only allowed on send instructions
Loop Exit Canonicalization Pass
.cstring
__builtin_IB_dtoui32_rtn
.fvmlib_init1
MaxNumOfPatchConstantSignatureEntries
.literal4
__builtin_IB_dtoui32_rtp
label redefinition 
igc-workaround-FP16Div
.objc_category
__builtin_IB_dtoui32_rte
.objc_cls_meth
AirRWModification
.objc_message_refs
__builtin_IB_dtoui64_rtn
invalid destination register number (%s only has %d registers on this platform)
air.visible_function_references
.objc_symbols
__builtin_IB_dtoui64_rtp
.objc_meth_var_types
igc-metadata-schema-wrapper
.ident
__builtin_IB_dtoui64_rte
unbound identifier
air.no_perspective
indirect symbol not in a symbol pointer or stub section
__builtin_IB_itof_rtn
unexpected token in '.indirect_symbol' directive
IGC::PositionOnlyVertexShader
expected string in '.dump' or '.load' directive
__builtin_IB_itof_rtp
rndd
igc-const-prop
__const_coal
__builtin_IB_itof_rtz
ignoring directive .load for now
NAN handling
.popsection without corresponding .pushsection
__builtin_IB_uitof_rtn
scratch index is out of bounds
Unsafe Optimizations Pass
invalid '.tbss' directive size, can't be less thanzero
__builtin_IB_uitof_rtp
expected segment name after '.zerofill' directive
llvm.loop
invalid '.zerofill' directive alignment, can't be less than zero
__builtin_IB_uitof_rtz
Print Module IR
__builtin_IB_itofp64_rtn
vISA_useMultiThreadedLatencies
vISA_UnifiedSendCycle
__mod_term_func
__builtin_IB_itofp64_rtp
__igcbuiltin_dp_sqrt
vISA_Compaction
__class
__builtin_IB_itofp64_rtz
__inst_meth
vISA_SymbolReg
__module_info
__builtin_IB_uitofp64_rtn
Remainder
kernel_arg_access_qual
__thread_data
__builtin_IB_uitofp64_rtp
invalid OS major version number, integer expected
vISA_DumpIsaVarNames
vISA_UniqueLabels
__builtin_IB_uitofp64_rtz
vISA_DumpvISA
platform name expected
fpmath
__builtin_IB_frnd_pi
invalid OS update version number
.data.rel
debug-pass
__builtin_IB_frnd_ni
Executions
vISA_encoderFile
.hidden
__builtin_IB_frnd_zi
.fini_array.
vISA_InitPayload
Section cannot specifiy a group name while also acting as a member of the last group
__builtin_IB_native_cosf
DPEmuzext
vISA_clearScratchWritesBeforeEOT
progbits
__builtin_IB_native_cosh
.note
vISA_setFFID
expected '@<type>', '%<type>' or "<type>"
__builtin_IB_native_sinf
entry size must be positive
vISA_setStartBreakPoint
invalid metadata symbol
__builtin_IB_native_sinh
VISA_AsmFileNameUser
opt-bisect-limit
expected symbol type in directive
__builtin_IB_native_exp2f
Unnamed pass: implement Pass::getPassName()
NumCounts
non-global-value-max-name-size
__builtin_IB_native_exp2h
Type size nodes must be constants!
Bitwidth between the offsets and struct type entries must match
.rela
__builtin_IB_native_log2f
.symtab_shndxr
-dumpPassesLocation
Function context does not match Module context!
__builtin_IB_native_log2h
FK_PCRel_2
cmpxchg failure argument shall be no stronger than the success argument
floorf
__builtin_IB_native_sqrtf
r16snorm
-emitLocation
FK_SecRel_2
__builtin_IB_native_sqrth
FK_DTPRel_4
-enableWriteFusion
FK_Data_Sub_2
__builtin_IB_native_sqrtd
Scalarize functions
-nomacopt
Disable
__builtin_IB_popcount_1u32
.code32
-nofoldaddrimmed
.asciz
__builtin_IB_popcount_1u16
inrange 
-nomac
fragment covers entire variable
__builtin_IB_popcount_1u8
.lshr
-disableStructurizer
__builtin_IB_native_powrf
fix-fast-math-flags
-ALTMode
sleb128 and uleb128 expressions must be absolute
__builtin_IB_fma
-nolvn
__builtin_IB_fmah
__svml_cos2
-no4GRFSplit
filechecksums_begin
__builtin_IB_bfi
unable to write nop sequence of 
-forceSamplerHeader
Instruction has null operand!
__builtin_IB_ibfe
__svml_cos8
-disableMixMode
nonnull applies only to load instructions, use attributes for calls or invokes
__builtin_IB_ubfe
igc-emu64ops
-noalign1ternary
.bundle_lock forbidden when bundling is disabled
__builtin_IB_bfrev
sgid
-noFP64bRegion
__builtin_IB_fmax
<<invalid>>
-noipa
GOTOFF
__builtin_IB_fmin
INDNTPOFF
-noindirectforcespills
TLSGD
__builtin_IB_HMAX
write
-nofailsafera
TLVPPAGEOFF
__builtin_IB_HMIN
MarkReadOnlyLoadPass
-nosplitllr
WEAKREF
__builtin_IB_dmin
target2
-noremat
tlsdescseq
__builtin_IB_dmax
callees
-TotalGRFNum
__builtin_IB_mul_rtz_f64
hlo8
-enableBCR
tocbase
__builtin_IB_mul_rtz_f32
funcThen
-nopresched
tprel@ha
__builtin_IB_fma_rtz_f64
tprel@highera
-dumpSchedule
dtprel@h
__builtin_IB_fma_rtz_f32
dtprel@higher
-noDD-lookback
got@tprel
__builtin_IB_add_rtz_f64
dtprel@higha
-dump-noSrcDep
got@tlsgd
__builtin_IB_add_rtz_f32
IndirectCallOptimization
-noWAWSubregHazardAvoidance
tlsld
__builtin_IB_thread_group_barrier
got@tlsgd@ha
-HWThreadNumberPerEU
GDPLT
__builtin_IB_thread_group_barrier_signal
, insts: 
-nobxmlencoder
__builtin_IB_thread_group_barrier_wait
.fix1.bitcast
Fix invalid addrspacecast-relevant patterns
-printasmcount
<MCFixup
__builtin_IB_memfence
read_write
-genIsaasmList
MCRelaxableFragment
__builtin_IB_flush_sampler_cache
MCLEBFragment
-isaasmNamesOutputFile
MCCVDefRangeTableFragment
__builtin_IB_typedmemfence
 HasInstructions:
-decodedbg
 ValueSize:
__builtin_IB_simd_lane_id
kernel_arg_type
-initializePayload
ceil
__builtin_IB_vme_send_ime
-noFFIDProlog
 InstSize:
__builtin_IB_vme_send_fbr
unable to evaluate offset to undefined symbol '
__builtin_IB_vme_send_sic
-hashmovs
__eh_frame
__common
__builtin_IB_vme_send_fbr_new
__DWARF
-dumpToCurrentDir
help-list
__builtin_IB_vme_send_sic_new
image1d_array
-stepping
__swift_ast
__builtin_IB_vme_send_ime_new_uint4_uint8
__debug_line_str
USAGE: -spilloffset <offset>
__debug_pubtypes
__builtin_IB_vme_send_ime_new_uint8_uint8
__debug_str_offs
USAGE: -abortonspillthreshold <threshold>
__debug_ranges
__builtin_IB_vme_send_ime_new_uint4_uint4
USAGE: -presched-rp <threshold>
image2d_array_msaa_depth
debug-counter
__builtin_IB_vme_send_ime_new_uint8_uint4
USAGE: -unifiedSendCycle <cycle>
LLVM ERROR: 
Allocation failed
__builtin_IB_set_message_phase_legacy_dw
USAGE: -decodedbg <dbg filename>
Running 'xdot.py' program... 
__builtin_IB_set_message_phase_legacy_uw
bindless_sampler_t
PurgeMetaDataUtilsImport
Breakdown intrinsics into simpler operations to enable better optimization
__builtin_IB_set_message_phase_legacy_ub
USAGE: missing stepping string. 
breakdown-intrinsics
Allocation failed
__builtin_IB_set_message_phase_legacy
.debug_cu_index
NULL
armv3
__builtin_IB_create_message_phases
BreakdownIntrinsicPass
IR_Build
__builtin_IB_create_message_phases_uint2
double type is not supported on this platform
Misc_opts
armv6-m
__builtin_IB_create_message_phases_uint4
Cannot initialize MC for unknown object file format.
GRF_Hybrid_RA
Cannot evaluate subsection number
__builtin_IB_create_message_phases_uint8
__svml_logf8
preRA_Scheduling
      
__builtin_IB_create_message_phases_no_init
11ocl_image1d
IGA_Encoding
,#exclude
__builtin_IB_create_message_phases_no_init_uint2
VB_Create_Var
kernel_arg_base_type
__builtin_IB_create_message_phases_no_init_uint4
always-inline
mach-o section specifier of type 'symbol_stubs' requires a size specifier
__builtin_IB_create_message_phases_no_init_uint8
mips64
sparcv9
4byte_literals
__builtin_IB_get_message_phase_dw
literal_pointers
..., 
netbsd
__builtin_IB_get_message_phase_dw_uint2
mod_init_funcs
enable-coldcc-stress-test
contiki
__builtin_IB_get_message_phase_dw_uint4
20ocl_image1d_array
globalopt
enable-fmax-fmin-plus-zero
__builtin_IB_get_message_phase_dw_uint8
S_THREAD_LOCAL_ZEROFILL
smallstring:"
S_THREAD_LOCAL_VARIABLE_POINTERS
__builtin_IB_get_message_phase_uq
[:>:]]
strip_static_syms
__builtin_IB_get_message_phase_uq_uint2
S_ATTR_LIVE_SUPPORT
space
__builtin_IB_get_message_phase_uq_uint4
Fix the alignment of loads and stores according to OpenCL rules
Function Integration/Inlining
__builtin_IB_get_message_phase_uq_uint8
.seh_ directive must appear within an active frame
basic
__builtin_IB_set_message_phase_dw
11ocl_image2d
Enable inliner stats for imported functions
quotation-mark
__builtin_IB_set_message_phase_dw_uint2
__builtin_IB_get_local_lock
Callee
solidus
__builtin_IB_set_message_phase_dw_uint4
symbol '
AlwaysInline
round
__builtin_IB_set_message_phase_dw_uint8
__builtin_IB_atomic_add_local_i32
 align 
REG_0x%x
__builtin_IB_get_message_phase_uw
!<unknown kind #
IncreaseCostInOtherContexts
hidden 
__builtin_IB_get_message_phase_uw_uint2
dllexport 
parse
alignstack 
__builtin_IB_get_message_phase_uw_uint4
westmere
bitcode-mdindex-threshold
; ModuleID = '
__builtin_IB_get_message_phase_uw_uint8
__builtin_IB_atomic_xchg_local_i32
Invalid encoding
 = { 
__builtin_IB_set_message_phase_uw
Write Bitcode
GenX CodeGen module
__builtin_IB_set_message_phase_uw_uint2
skylake-avx512
PATH
__builtin_IB_set_message_phase_uw_uint4
Value: [null]
Disable symbolizing crash backtraces.
__builtin_IB_set_message_phase_uw_uint8
DW_TAG_imported_declaration
constant bigger than 128 bits detected!
type: 
__builtin_IB_get_message_phase_ub
(offset: 
invalid value number (too large)!
musttail 
__builtin_IB_get_message_phase_ub_uint2
wchar_size
available_externally
__builtin_IB_get_message_phase_ub_uint4
 atomic
undef
 unwind 
__builtin_IB_get_message_phase_ub_uint8
inalloca 
 reassoc
 ninf
__builtin_IB_set_message_phase_ub
 afn
alias
DW_AT_language
__builtin_IB_set_message_phase_ub_uint2
 sub
x86_stdcallcc
DW_AT_return_addr
__builtin_IB_set_message_phase_ub_uint4
 umax
arm_apcscc
 ; (
__builtin_IB_set_message_phase_ub_uint8
 preds = 
ptx_kernel
DW_AT_vtable_elem_location
__builtin_IB_get_message_phase
20ocl_image2dmsaadepth
intel_ocl_bicc
DW_AT_small
__builtin_IB_get_message_phase_uint2
<placeholder or erroneous Constant>
webkit_jscc
DW_AT_enum_class
__builtin_IB_get_message_phase_uint4
igc-gen-ir-lowering
preserve_allcc
, summaries: (
__builtin_IB_get_message_phase_uint8
, notEligibleToImport: 
hhvm_ccc
DW_AT_MIPS_loop_begin
__builtin_IB_set_message_phase
25ocl_image2darraymsaadepth
amdgpu_hs
, calls: (
__builtin_IB_set_message_phase_uint2
, typeIdInfo: (
amdgpu_cs
, offset: 
__builtin_IB_set_message_phase_uint4
typeTestRes: (kind: 
builtin
DW_AT_BORLAND_Delphi_ABI
__builtin_IB_set_message_phase_uint8
, resByArg: (
convergent
DW_AT_APPLE_property_setter
__builtin_IB_broadcast_message_phase_ub
16ocl_image2ddepth
inaccessiblemem_or_argmemonly
DW_OP_dup
__builtin_IB_broadcast_message_phase_ub_uint2
minsize
DW_OP_plus
__builtin_IB_broadcast_message_phase_ub_uint4
igc-shuffle-simplification
nocapture
ctpop.trunc
__builtin_IB_broadcast_message_phase_ub_uint8
__builtin_IB_atomic_cmpxchg_global_f32
norecurse
DW_OP_lit18
__builtin_IB_broadcast_message_phase_uw
vpmovm2
noreturn
DW_OP_reg2
__builtin_IB_broadcast_message_phase_uw_uint2
__builtin_IB_atomic_cmpxchg_local_f32
optsize
DW_OP_reg18
__builtin_IB_broadcast_message_phase_uw_uint4
GeometryShaderLowering
returns_twice
__builtin_IB_broadcast_message_phase_uw_uint8
Unknown specifier in datalayout string
DW_OP_breg18
__builtin_IB_broadcast_message_phase_dw
24IGIL_EnqueueKernelShared9ocl_queuejPvjS_S_jS_jiPi9ndrange_tii12ocl_clkevent
safestack
DW_OP_bregx
__builtin_IB_broadcast_message_phase_dw_uint2
DIFlagPublic
sanitize_thread
DW_OP_constx
__builtin_IB_broadcast_message_phase_dw_uint4
uwtable
DIFlagStaticMember
__builtin_IB_broadcast_message_phase_dw_uint8
DIFlagMultipleInheritance
exactmatch
DW_VIRTUALITY_pure_virtual
__builtin_IB_broadcast_message_phase_uq
18IGIL_EnqueueKernel9ocl_queuejPvjS_S_jS_j9ndrange_ti12ocl_clkevent
DW_LANG_ObjC
__builtin_IB_broadcast_message_phase_uq_uint2
Expected mangling specifier in datalayout string
name
DW_LANG_Dylan
__builtin_IB_broadcast_message_phase_uq_uint4
pass-remarks-analysis
critical
DW_CC_BORLAND_safecall
__builtin_IB_broadcast_message_phase_uq_uint8
__builtin_IB_atomic_and_global_i64
typeTestAssumeConstVCalls
!Analysis
__builtin_IB_simd_set_message_phase_ub
 at byte position 
single
Args
__builtin_IB_simd_set_message_phase_ub_uint2
Line
Verify dominator info (time consuming)
__builtin_IB_simd_set_message_phase_ub_uint4
Delete, 
mme5
(badref)
__builtin_IB_simd_set_message_phase_ub_uint8
(no_name)(
token
MT1R_MB
__builtin_IB_simd_set_message_phase_uw
igc-legalize-global-value-usages
extractelement
MT1W_A64_SB
__builtin_IB_simd_set_message_phase_uw_uint2
__builtin_IB_get_stage_in_grid_origin
use of undefined type named '
MT_RTW
__builtin_IB_simd_set_message_phase_uw_uint4
stage_in_grid_size_y
use of undefined summary '^
enqueued_local_size_z
__builtin_IB_simd_set_message_phase_uw_uint8
num_work_groups_y
unknown target property
Typed Surface Read
__builtin_IB_simd_set_message_phase_dw
14enqueue_marker9ocl_queuejPKU3AS412ocl_clkeventPU3AS412ocl_clkevent
expected '=' after deplibs
Oword Block Read Constant Cache
__builtin_IB_simd_set_message_phase_dw_uint2
virtual_binding_table_ps
non-struct types may not be recursive
Advanced MemOpt
__builtin_IB_simd_set_message_phase_dw_uint4
air.get_size_visible_function_table
air.is_null_visible_function_table
air.get_buffer_visible_function_table
__builtin_IB_simd_set_message_phase_dw_uint8
unknown selection kind
7033
__builtin_IB_simd_set_message_phase_uq
11read_imagef14ocl_image2d_ro11ocl_samplerDv2_fS_S_
expected end of metadata node
SLM fence
__builtin_IB_simd_set_message_phase_uq_uint2
__builtin_IB_atomic_min_global_u16
expected ':' at start of summary entry
 constant data
__builtin_IB_simd_set_message_phase_uq_uint4
air.atomic_compare_exchange_weak_explicit_texture
invalid linkage type for alias
7086
__builtin_IB_simd_set_message_phase_uq_uint8
bindless_image2d_msaa_depth_t
An alias or ifunc must have pointer type
7071
__builtin_IB_simd_get_message_phase_uw
11read_imagei14ocl_image2d_ro11ocl_samplerDv2_fS_S_
forward reference and definition of alias have different types
MSD1W_A64_OWDB
__builtin_IB_simd_get_message_phase_uw_uint2
texture2d_ms
unknown global variable property!
__builtin_IB_simd_get_message_phase_uw_uint4
texture2d_ms_array
attribute group has no attributes
skip
__builtin_IB_simd_get_message_phase_uw_uint8
llvm.dbg.cu
invalid use of parameter-only attribute on a function
unsupported DC1 op
__builtin_IB_simd_get_message_phase_uq
12read_imageui14ocl_image2d_ro11ocl_samplerDv2_fS_S_
expected string constant
signal event
__builtin_IB_simd_get_message_phase_uq_uint2
7048
expected ')' after thread local model
.f32
__builtin_IB_simd_get_message_phase_uq_uint4
opencl.used.optional.core.features
invalid use of parameter-only attribute
ffsl
__builtin_IB_simd_get_message_phase_uq_uint8
opencl.kernels
alignment is not a power of two
__builtin_IB_extract_mv_and_sad
11read_imagef20ocl_image2d_depth_ro11ocl_samplerDv2_fS_S_
dereferenceable bytes must be non-zero
sample+LOD bias
__builtin_IB_cmp_sads
Expected '(' in syncscope
sample_killpix
__builtin_IB_simdMediaRegionCopy
Invalid type
stack alignment is not a power of two
sample_ld2dms_w
__builtin_IB_ieee_sqrt
Operand bundles found with no consumer
void type only allowed for function results
sample_unorm_killpix_media
__builtin_IB_ieee_divide
11read_imagef20ocl_image2d_array_ro11ocl_samplerDv4_fDv2_fS0_
pointers to void are invalid; use i8* instead
DataElements:MDC_A64_DB_OW
__builtin_IB_ieee_divide_f64
__builtin_IB_atomic_xor_local_i16
unexpected ellipsis in argument list for 
absent
__builtin_IB_va_erode_64x4
Invalid type for value
expected '...' at end of argument list for musttail call in varargs function
DE8 (8 data elements per addr.)
__builtin_IB_va_dilate_64x4
Expect function block
argument can not have void type
no channels enabled
__builtin_IB_va_minmaxfilter_16x4_SLM
11read_imagei20ocl_image2d_array_ro11ocl_samplerDv4_fDv2_fS0_
argument attributes invalid in function type
returns new value
__builtin_IB_va_convolve_16x4_SLM
work_group_size_hint
invalid element type for struct
atomic_iipdec
__builtin_IB_va_convolve_16x1
llvm.
expected end of sequential type
integer compare and swap (non-64b)
__builtin_IB_va_convolve_16x4
igc-process-builtin-metaData
invalid array element type
PerSlotOffsetPresent
__builtin_IB_va_minmax
12read_imageui20ocl_image2d_array_ro11ocl_samplerDv4_fDv2_fS0_
ProcessFuncAttributes
referenced-indirectly
__builtin_IB_va_centroid
typed_store
multiple definition of local value named '
DstDataType
__builtin_IB_va_boolcentroid
deviceEnqueueParentEvent
expected end of constant
vmeSadAdjustMode
__builtin_IB_va_boolsum
 is not of type '
Src0RegNum
__builtin_IB_WaveBallot
11read_imagef26ocl_image2d_array_depth_ro11ocl_samplerDv4_fDv2_fS0_
expected string
nop doesn't support Switch option (dropping)
__builtin_IB_samplepos
 undefined reference to `jmp()' 
expected comma in block address expression
src%d: unsupported source operand kind (malformed IR)
__builtin_IB_dp4a_ss
IGCMetadata
referenced value is not a basic block
Src0MathMacroExt
__builtin_IB_dp4a_uu
igc-resolve-atomics
expected ')' at end of constantexpr cast
Src2MathMacroExt
__builtin_IB_dp4a_su
// File: 
Operand::Kind::?
simd
__builtin_IB_dp4a_us
imageNumMipLevels
expected comma in insertvalue constantexpr
on <v;h> region w must be Region::WI_INVALID
mcsl
WorkaroundAnalysis Pass
Check individual type of instructions
mcsh
no mapping for descriptors
float2x4
float3x3
imcsl
packed_bool4
BAD,
xga8
imcsh
packed_double3
nuw only applies to integer operations
cbl128
gradXZ
Ensures single precision divide and sqrt are correctly rounded
expected '(' in logical constantexpr
gradYZ
igc-correctly-rounded-div-sqrt
expected '(' in constantexpr
gradXY
packed_uchar4
grid
gradYY
char3
packed_char
packed_char3
gradXX
null
packed_ushort
gradYX
packed_short3
global values must be constants
__precompiled_udiv
12write_imagei14ocl_image3d_woDv4_iS_
expected '!' here
__precompiled_udiv2
packed_int3
missing required field 'count'
Bit Field Insert 2
__precompiled_udiv3
uint
missing required field 'baseType'
The call instruction jumps to a subroutine. It can be predicated or non-predicated. If non-predicated, all enabled channels jump to the subroutine. If predicated, only the channels enabled by PMask jump to the subroutine; the rest of the channels move to the next instruction after the call instruction. If none of the channels jump into the subroutine, the call instruction is treated as a nop.
In case of a jump, the call instruction stores the return IP onto the first DWord of the destination register and stores the CallMask in the second DWord of the destination register.
When SPF is on, the predication control must be scalar.
The following section describes JIP, the jump offset, for DevHSW+.
JIP can be an immediate or register value. When a jump occurs, this value is added to IP pre-increment. For DevHSW+, in GEN binary, JIP is at location src1 and src0 must be null. The GRF register must be put (for example, by the assembler) at dst location.
Format: [(pred)] call (exec_size) dst JIP
Format: [(pred)] call (exec_size) dst JIP
__precompiled_udiv4
packed_float3
'checksumkind' and 'checksum' must be provided together
__precompiled_udiv8
12write_imagei14ocl_image3d_rwDv4_iS_
missing 'distinct', required for !DISubprogram when 'isDefinition'
Else
__precompiled_udiv16
ushort2
expected '(' here
The fbl instruction counts component-wise the number of LSB 0 bits before the first 1 bit in src0, storing that number in dst.
Format:
[(pred)] fbl (exec_size) dst src0
If src0 contains no 1 bits, store 0xFFFFFFFF in dst.
__precompiled_umod
air.alias_implicit_imageblock_render_target
expected ')' here
line
__precompiled_umod2
TRIVIAL_RA
expected metadata operand
Multiply Add
__precompiled_umod3
air.threads_per_grid
integer constant must have integer type
air.vertex_id
__precompiled_umod4
air.emulation_argument
invalid type for undef constant
IREM
__precompiled_umod8
constant expression type mismatch
__precompiled_umod16
threads_per_grid_end
 of struct initializer doesn't match struct element type
No Operation
__precompiled_sdiv
12write_imagei16ocl_image2d_array_woDv4_iS_
invalid function linkage type
The rndd instruction takes component-wise floating point downward rounding (to the integral float number closer to negative infinity) of src0 and storing the rounded integral float results in dst. This is commonly referred to as the floor() function.
Each result follows the rules in the following tables based on the floating-point mode.
Format:
[(pred)] rndd[.cmod] (exec_size) dst src0
__precompiled_sdiv2
Analyzes device enqueue functions
'builtin' attribute not valid on function
__precompiled_sdiv3
denorm_exp
' with wrong type!
Pass legalizes texture and sampler addrspaces from GLOBAL/CONSTANT to indirect
__precompiled_sdiv4
__builtin_IB_get_group_id
' disagree
The cont instruction disables execution for the subset of channels for the remainder of the current loop iteration. Channels remain disabled until right before the while instuction or right before the condition check code block for the while instruction. If all enabled channels hit this instruction, jump to the instruction referenced by JIP where execution continues.
UIP should always reference the loop's associated while instruction. JIP should point to the last instruction of the inner most conditional block if the cont instruction is inside a conditional block. In case of the break instruction directly under the loop, the JIP and the UIP are the same.
If SPF is ON, the UIP must be used to update IP; JIP is not used in this case.
The following table describes the two 32-bit instruction pointer offsets. Both the JIP and UIP are signed 32-bit numbers, added to IP pre-increment. In GEN binary, JIP and UIP are at locations src0 and src1 and must be of type DW (signed DWord integer). When the offsets are immediate, src0 regfile must be immediate.
Format:
[(pred)] cont (exec_size) JIP UIP
__precompiled_sdiv8
12write_imagei20ocl_image2d_array_rwDv4_iS0_
unable to create block named '
Multiply Add for Macro
__precompiled_sdiv16
cubeMapCoordArray
expected instruction opcode
Perform component-wise logical left shift of the bits in src0 by the shift count indicated in src1, storing the results in dst, inserting zero bits in the number of LSBs indicated by the shift count.
Hardware detects overflow properly and uses it to perform any saturation operation on the result, as long as the shifted result is within 33 bits. Otherwise, the result is undefined.
Note: For word and DWord operands, the accumulators have 33 bits.
In QWord mode, the shift count is taken from the low six bits of src1 regardless of the src1 type and treated as an unsigned integer in the range 0 to 63. Otherwise the shift count is taken from the low five bits of src1 regardless of the src1 type and treated as an unsigned integer in the range 0 to 31. The operation uses QWord mode if src0 or dst has the Q or UQ type but not if src1 is the only operand with the Q or UQ type.
Format:
[(pred)] shl[.cmod] (exec_size) dst src0 src1
__precompiled_smod
AIR Function Attribute Update
branch condition must have 'i1' type
Conditional Split Send Message
__precompiled_smod2
TransformBlocksOutput
WAFMinFMax
KMPLOCK
__precompiled_smod3
rgba16snorm
rg11b10f
AirEmulateArgumentBuffers
__precompiled_smod4
__get_kernel_work_group_size_impl
expected ']' at end of block list
unsupported Align16 ternary destination (unsupported SIMD)
__precompiled_smod8
rgba8snorm
too many arguments specified
) accessing GED_
__precompiled_smod16
ThreadGroupSize_X
expected '[' in catchpad/cleanuppad
half3x2
precompiled_u32divrem
register number out of bounds
expected 'from' after catchret
(integral) division by zero
precompiled_s32divrem
air.kernel
expected '[' with catchswitch labels
Atomic mot supported on given platform
precompiled_u32divrem_sp
air.location
expected 'within' after catchpad
N3 is obsolete; use M8 in execution offset: e.g. op (4|M8) ...
precompiled_s32divrem_sp
HSEntry
expected ',' in arithmetic operation
default_register_type
__igcbuiltin_dp_add
29intel_work_group_vme_mb_queryPU3AS3jDv2_iS1_14ocl_image2d_roS2_11ocl_sampler
expected ',' after compare value
expected 'b' (branch control)
__igcbuiltin_dp_sub
N7 is obsolete; use M24 in execution offset: e.g. op (4|M24) ...
expected ',' after select value
use 
__igcbuiltin_dp_fma
Translate AI
expected ',' after insertelement value
labs
__igcbuiltin_dp_mul
fast_math_enable
expected '[' in phi value list
noacc
__igcbuiltin_dp_div
12DoMultiQueryPU3AS3jjjDv2_jDv2_iS2_14ocl_image2d_roS3_11ocl_samplerj
'filter' clause has an invalid type
implicit type on src should be omitted
__igcbuiltin_dp_cmp
expected 'tail call', 'musttail call', or 'notail call'
Advanced DCE on loop
ThreadGroupSize_Z
__igcbuiltin_dp_to_int32
out of dynamic memory in yy_scan_bytes()
37intel_work_group_vme_mb_multi_query_8PU3AS3jjjDv2_jDv2_iS2_14ocl_image2d_roS3_11ocl_sampler
LastPatternMatch Pass
__igcbuiltin_dp_to_uint32
Gen strength reduction
store operand must be a pointer
FCmpPaternMatch
__igcbuiltin_int32_to_dp
stored value and pointer type do not match
succeeded
HoistFMulInLoopPass
__igcbuiltin_uint32_to_dp
expected ',' after cmpxchg cmp operand
fminf
llabs
__igcbuiltin_dp_to_sp
vISA_ReorderDPSendToDifferentBti
Print BasicBlock IR
unreachable
catchpad
fsub
udiv
frem
atomicrmw
trunc
fptoui
fptosi
icmp
select
va_arg
insertelement
.legal
selected values for vector select must be vectors
false
DPEmuFlag
alias.scope
section_prefix
irr_loop
singlethread
Allocation failed
print pass structure before run()
Details
Print IR after specified passes
print-after-all
function names
IRSizeChange
 on module '
Pass '
- Corruption of the global PassRegistry
' is not preserving '
 Free these instances
'...
' on Function '
Used
FunctionPass Manager
Module Pass Manager
DPEmuCmp
branch_weights
,data
expected 'unique'
Allocation failed
PreCompiledFuncImport
) in function (
BISECT: 
Two passes with the same argument (-
vISA_dumpPayload
Allocation failed
Multiple symbol versions defined for 
Offset entries must be constants!
Could not find TBAA parent in struct type node
Access tag metadata must have either 4 or 5 operands
Malformed struct tag metadata: base and access-type should be non-null and point to Metadata nodes
Offset must be constant integer
' does not have terminator!
# formal arguments must match # of arguments for function type!
Calling convention requires void return type
Calling convention does not allow sret
Referencing personality function in another module!
function declaration may not have a !prof attachment
function must have a single !dbg attachment
DISubprogram attached to more than one function
Only global variables can have appending linkage!
GlobalValue with DLLImport Storage is dso_local!
Global is referenced in a different module!
Global is used by function in a different module
Cannot have multiple 'sret' parameters!
Cannot have multiple 'swifterror' parameters!
Attributes 'readnone and inaccessiblemem_or_argmemonly' are incompatible!
Attributes 'noinline and alwaysinline' are incompatible!
number of elements
Attributes 'sret and returned' are incompatible!
Attribute 'byval' only applies to parameters with pointer type!
igc-scalarize
swifterror value should be the second operand when used by stores
first operand should not be null
Invalid operand for global metadata!
All nodes should be resolved!
fragment is larger than or outside of variable
Count must either be a signed constant or a DIVariable
DWARF address space only applies to pointer or reference types
invalid file
invalid template params
invalid checksum length
invalid enum type
invalid retained type
invalid macro ref
invalid containing type
subprogram definitions must be distinct
Fix Fast Math Flags
anonymous module
missing global variable type
invalid imported entity
anonymous macro
Basic Block does not have terminator!
PHI node has multiple entries for the same basic block with different incoming values!
Function return type does not match operand type of return inst!
Terminator found in the middle of a basic block!
Use of instruction is not an instruction!
Cannot take the address of an intrinsic!
Referencing global in another module!
fpmath requires a floating point result!
nonnull applies only to pointer types
align applies only to load instructions, use attributes for calls or invokes
invalid !dbg metadata attachment
__builtin_spirv_BuiltInWorkgroupId
The upper limit must be an integer!
Intervals are overlapping
dereferenceable, dereferenceable_or_null take one operand!
Branch condition is not 'i1' type!
Called function must be a pointer!
Called function requires more parameters than were provided!
swifterror argument for call has mismatched alloca
swifterror argument should come from an alloca or parameter
Multiple deopt operand bundles
Expected exactly one funclet bundle operand
Intrinsic has incorrect argument type!
Callsite was not defined with variable arguments!
addr
isvolatile argument of memory intrinsics must be a constant int
incorrect alignment of the destination argument
mark-readonly-load
size argument of memory use markers must be a constant integer
multiple calls to llvm.localescape in one function
gc.result operand #1 must be from a statepoint
wrong number of arguments
gc.relocate operand #2 must be integer offset
gc.relocate: statepoint derived index out of bounds
gc.statepoint: number of deoptimization arguments must be a constant integer
gc.relocate: statepoint base index doesn't fall within the 'gc parameters' section of the statepoint call
masked_load: mask must be vector
masked_load: vector mask must be same length as data
experimental_guard must have exactly one "deopt" operand bundle
experimental_deoptimize must have exactly one "deopt" operand bundle
invalid rounding mode argument
 intrinsic variable
 variable and !dbg attachment
endIndirectCallBB
gc.statepoint callee must be of function pointer type
gc.statepoint mismatch in number of vararg call args
gc.statepoint call argument does not match wrapped function type
gc.statepoint number of transition arguments must be positive
gc.result connected to wrong gc.statepoint
The resume instruction should have a consistent result type inside a function.
CatchSwitchInst not the first non-PHI instruction in the block.
CatchSwitchInst has an invalid parent.
Catchswitch cannot unwind to one of its catchpads
EH pad cannot handle exceptions raised within it
Integer arithmetic operators must have same type for operands and result!
Floating-point arithmetic operators must have same type for operands and result!
Cannot allocate unsized type
loading unsized types is not allowed
atomic load operand must have integer, pointer, or floating point type!
indirect-call-optimization
Non-atomic store cannot have SynchronizationScope specified
GEP indexes must be integers
All GEP indices should be of integer type
cmpxchg instructions must be atomic.
atomicrmw instructions must be atomic.
atomicrmw operand must have integer type!
trunc source and destination must both be a vector or neither
DestTy too big for Trunc
sext source and destination must both be a vector or neither
FPToUI source must be FP or FP vector
FPToSI result must be integer or integer vector
UIToFP source and dest must both be vector or scalar
SIToFP result must be FP or FP vector
FPTrunc only produces an FP
fpext source and destination must both be a vector or neither
FixDeadVisibleFunctions
IntToPtr type mismatch
AddrSpaceCast result must be a pointer
CleanupPadInst has an invalid parent.
Bogus funclet pad use
Both operands to ICmp instruction are not of the same type!
Both operands to FCmp instruction are not of the same type!
PHI node operands are not the same type as the result!
cannot use musttail call with inline asm
bitcast following musttail call must use the call
Invalid operands for select instruction!
Invalid shufflevector operands!
Invalid InsertValueInst operands!
Filter operand is not an array of constants!
Global variable initializer type does not match global variable type!
invalid linkage for intrinsic global variable
image2d
Aliasee should be either GlobalValue or ConstantExpr
Alias cannot point to an interposable alias
invalid requirement on flag, flag does not have the required value
invalid behavior operand in module flag (expected constant integer)
invalid value for 'append'-type module flag (expected a metadata node)
'Linker Options' named metadata no longer supported
ldrawvector_indexed@
ldstructured@
%.9lu
    =
    -
Generic Options
help-list-hidden
print-options
print-all-options
inconsistency in registered CommandLine options
error - option can never match, because another positional argument will match an unbounded number of values, and this option does not require a value!
: Did you mean '-
: Too many positional arguments specified!
must be specified at least once!
not enough values!
  This option category has no options.
  Type "
 version 
image2d_array_msaa
: for the -
FPImm:
DebugCounter Error: 
-easyisaasm
LLVM ERROR: out of memory
'... 
xdg-open
USAGE: -hashmovs hi32 lo32
.debug_addr
Included from 
error: 
warning: 
note: 
remark: 
.debug_line.dwo
armv2
armv4t
armv5te
armv5tej
armv6k
v7ve
__cospi
armv8-m.base
__memset_chk
__nvvm_reflect
__sinpi
0x7000001e
llvm.genx.GenISA.GlobalSizeLocation
llvm.genx.GenISA.OutputTessFactors
llvm.genx.GenISA.createMessagePhases
Error Check
__stpncpy_chk
0123456789_.abcdefghijklmnopqrstuvwxyzABCDEFGHIJKLMNOPQRSTUVWXYZ
__strndup
__strtok_r
visaStackCall
File to append -stats and -timer output to
   ---User Time---
  --- Name ---
Total
enable-nonnull-arg-prop
riscv64
nvptx64
hsail64
cloudabi
dragonfly
macosx
solaris
nacl
mesa3d
gnux32
code16
kernel_arg_name
17ocl_image1dbuffer
stringref:"
decUI:"
decL:"
decLL:"
out of range number
storestructured1@
blank
digit
lower
!"#$%&'()*+,-./:;<=>?@[\]^_`{|}~
upper
backspace
form-feed
carriage-return
exclamation-mark
dollar-sign
right-parenthesis
plus-sign
slash
seven
__builtin_IB_atomic_add_global_i32
question-mark
backslash
underscore
grave-accent
16ocl_image2darray
 prefix 
invalid collating element
REG_EESCAPE
brackets ([ ]) not balanced
REG_EBRACE
invalid character range
out of memory
"can't happen" -- you found a bug
umulH@
bdver1
znver1
broadwell
penryn
k6-2
btver1
pentium
pentium4
pentium-m
vaConvolve@
0123456789abcdef
Size: 
TERM
Can't redirect stderr to stdout
Cannot open file '
-cl-kernel-arg-info
Unable to find target for this triple (no targets are registered)
DW_TAG_formal_parameter
DW_TAG_lexical_block
DW_TAG_string_type
DW_TAG_typedef
DW_TAG_common_inclusion
DW_TAG_inlined_subroutine
DW_TAG_access_declaration
DW_TAG_const_type
DW_TAG_namelist
DW_TAG_packed_type
DW_TAG_variant_part
DW_TAG_dwarf_procedure
DW_TAG_unspecified_type
DW_TAG_partial_unit
DW_TAG_coarray_type
DW_TAG_atomic_type
DW_TAG_MIPS_loop
DW_TAG_function_template
DW_TAG_GNU_call_site_parameter
DW_TAG_BORLAND_Delphi_string
DW_AT_location
DW_AT_name
DW_AT_high_pc
DW_AT_discr_value
DW_AT_comp_dir
DW_AT_containing_type
DW_AT_prototyped
DW_AT_bit_stride
DW_AT_artificial
__builtin_IB_atomic_max_local_u32
DW_AT_declaration
DW_AT_external
DW_AT_namelist_item
DW_AT_segment
DW_AT_virtuality
DW_AT_associated
DW_AT_extension
DW_AT_ranges
DW_AT_decimal_scale
DW_AT_digit_count
DW_AT_object_pointer
DW_AT_elemental
DW_AT_const_expr
DW_AT_string_length_bit_size
DW_AT_rnglists_base
__builtin_IB_atomic_or_global_i32
DW_AT_call_all_tail_calls
DW_AT_call_origin
DW_AT_call_target_clobbered
DW_AT_call_data_value
DW_AT_loclists_base
DW_AT_MIPS_epilog_begin
DW_AT_MIPS_abstract_name
DW_AT_MIPS_clone_origin
DW_AT_MIPS_assumed_size
DW_AT_mac_info
DW_AT_GNU_template_name
DW_AT_GNU_call_site_value
DW_AT_GNU_addr_base
DW_AT_GNU_discriminator
DW_AT_BORLAND_property_index
__builtin_IB_atomic_inc_global_i32
DW_AT_BORLAND_Delphi_interface
DW_AT_BORLAND_Delphi_frameptr
DW_AT_APPLE_optimized
DW_AT_APPLE_isa
DW_AT_APPLE_property_getter
DW_AT_APPLE_objc_complete_type
DW_OP_const1s
DW_OP_const2u
DW_OP_consts
DW_OP_over
DW_OP_abs
DW_OP_div
DW_OP_or
DW_OP_shl
DW_OP_eq
__builtin_IB_atomic_cmpxchg_global_i32
DW_OP_lit1
DW_OP_lit4
DW_OP_lit9
DW_OP_lit11
DW_OP_lit17
DW_OP_lit20
DW_OP_lit25
DW_OP_lit26
DW_OP_reg1
DW_OP_reg4
DW_OP_reg9
DW_OP_reg11
DW_OP_reg17
DW_OP_reg20
DW_OP_reg24
__builtin_IB_atomic_add_global_i64
DW_OP_breg1
DW_OP_breg4
DW_OP_breg9
DW_OP_breg11
DW_OP_breg17
DW_OP_breg20
DW_OP_breg25
DW_OP_breg26
DW_OP_fbreg
DW_OP_deref_size
DW_OP_call4
DW_OP_form_tls_address
DW_OP_addrx
DW_OP_const_type
DW_OP_reinterpret
__builtin_IB_atomic_min_global_u64
DW_ATE_float
DW_ATE_unsigned
DW_ATE_edited
DW_ATE_unsigned_fixed
DW_VIRTUALITY_virtual
DW_LANG_C
DW_LANG_Modula3
DW_LANG_C_plus_plus_03
DW_LANG_Julia
DW_LANG_Fortran03
DW_LANG_BLISS
__builtin_IB_atomic_max_global_f64
raw_sends
logb
logbf
malloc
memrchr
mkdir
llvm.genx.GenISA.PHASE.INPUT
elfiamcu
target-features
llvm.metadata
Name
R_WEBASSEMBLY_TYPE_INDEX_LEB
static-func-strip-dirname-prefix
 is not yet implemented
branchFunnel
mme4
nomme
MT0R_OWB
MT0_MEMFENCE
MT0W_OWDB
MT1A_UI4x2
MT1A_TA
MT1A_TC4x2
MT1W_TS
MT1W_A64_US
MT2R_A64_SB
MT2W_A64_SB
MT_CC_OWB
MT_RSI
MTR_MB
MTRW_TS
__builtin_IB_atomic_add_global_i16
Scratch Block Read
Unaligned OWord Block Read
OWord Block Write
DWord Scattered Write
Media Block Read
Typed Atomic Integer Operation SIMD4x2
Typed Surface Write
A64 Scattered Read
A64 Scattered Write
Oword Dual Block Read Constant Cache
Render Target Write
Typed Atomic Operation
14enqueue_marker9ocl_queuejPU3AS4K12ocl_clkeventPU3AS4S0_
expected 'global' or 'constant'
constant oword block read
constant dword gathering read
unsupported DCRO op
aligned_load_block
store_block
oword dual block read decode not supported
byte gathering read
dword scattering write
7067
slm_fence
global fence
FLush L1
 texture data
hword scratch block write
__builtin_IB_atomic_min_global_f16
7091
a64 byte gathering read
Byte with Status Return
a64 byte scattering with status return message
QWord
7072
7037
33440
MSD1R_A64_OWDB
 aligned
a64 float atomic
7118
7161
7167
__builtin_IB_atomic_max_global_i16
override
stride offset meaningless when override not set
typed
7109
7103
enabled
 with per-slot offset enabled
44779
signal
monitor event
GatewayOpcode
unknown render target op
full-precision
half-precision not supported on render target read
.rep16
__builtin_IB_atomic_max_local_u16
unknown write subop
PerCoarsePixelPSOutputs
.psp
; last render target
.sgh
12484
simd8h
simd8 high
 16b
sample compare
sample load
sample gather4
sample info
sample gather4+compare
sample derivatives+compare
__builtin_IB_atomic_or_global_i16
sample load with lod forced to 0
sample_ld_mcs
sample multi-sample without mcs
sample unorm
sample unorm for media
sample_8x8
SamplerIndex
 using sampler index 
1H (1 Oword accessed in high half of GRF)
MDC_IAR
Fill 1 byte per DW
Header
hdc_
__builtin_IB_atomic_inc_global_i16
DE4 (4 data elements per addr.)
 (SLM)
 A32
 (SSO)
channel mask must have one element not disabled
ChannelDisableMask:MDC_CMASK
atomic_fmax
atomic_fmin
no return value
 with return
atomic_or
atomic_xor
integer decrement
atomic_iadd
commuted integer subtract
__builtin_IB_atomic_cmpxchg_global_i16
unsigned-integer min
SimdMode:MDC_SM2R
SG8L
 (in owords)
DualHeader
hword unaligned
dual block
Mark empty blocks after deSSA
MathFC
ChannelOffset
CondModifier
Saturate
DstMathMacroExt
Src1DataType
Src0VertStride
ExMsgDesc
DescRegFile
DstChanEn
DstAddrImm
src%d: unsupported source operand kind/addrMode (malformed IR)
Src0AddrSubRegNum
%s: invalid register name for this platform
DepCtrl
cyclic dependency
unsupported opcode
src%d source modifier not supported (invalid IR)
Src1SrcMod
Src1AddrImm
Resolve atomic built-ins
Src0SrcMod
invalid region vertical stride on src0
Src0RepCtrl
Src1RepCtrl
Src2SubRegNum
src%d: math macro operands require Align16
11read_imagef14ocl_image3d_ro11ocl_samplerDv4_fS_S_
SinglePatch
// Line 
, to 
bti 
SrcModifier
/* [
11read_imagei14ocl_image3d_ro11ocl_samplerDv4_fS_S_
expected '(' in compare constantexpr
an operand is indirect
store needs binary send with non-null src1
fcmp requires floating point operands
surf
xsc32
ga32c
abl128
sbl256
PackedData
HWSB
uchar3
 after kernel end
register regioning restriction warning: ExecSize * sizeof(Type) exceeds 2 GRF
see Programmer's Reference Manual (Restriction 1.1)
register regioning restriction warning: SIMD1 requires vertical and horiztonal to be 0 (scalar region access)
see Programmer's Reference Manual (Restriction 2.5)
expected three operands to select
Index
Math Macro
Stack Pointer
State Register
Instruction Pointer
Debug
The addc instruction performs component-wise addition of src0 and src1 and stores the results in dst; it also stores the carry into acc.
If the operation produces a carry out, 0x00000001 is stored in acc, else 0x00000000 is stored in acc.
Format:
[(pred)] addc[.cmod] (exec_size) dst src0 src1
The and instruction performs component-wise logic AND operation between src0 and src1 and stores the results in dst.
Register source operands can use source modifiers:
[Pre-DevBDW]: Any source modifier is numeric, optionally changing a source value s to -s, abs(s), or -abs(s) before the AND operation.
[DevBDW+]: Any source modifier is logical, optionally changing a source value s to ~s (inverting all source bits). This capability allows expressions like a AND (NOT b) to be calculated with one instruction.
This operation does not produce sign or overflow conditions. Only the .e/.z or .ne/.nz conditional modifiers should be used.
Format:
Source modifier is not allowed if source is an accumulator.
Average
bfi2
bfrev
The brc instruction redirects the execution forward or backward to the instruction pointed by (current IP + offset). The jump will occur if all channels are branched away.
UIP should reference the instruction where all channels are expected to come together. JIP should reference the end of the innermost conditional block.
In GEN binary, JIP and UIP are at location src1 when immediates and at location src0 when reg64, where reg64 is accessed as paired DWord (regioning being <2;2,1>). The ip register must be used (for example, by the assembler) as dst. When offsets are immediate, src0 must be null.
Format:
[(pred)] brc (exec_size) JIP UIP
__builtin_spirv_BuiltInGlobalInvocationId
Call
Call Absolute
The cmp instruction performs component-wise comparison of src0 and src1 and stores the results in the selected flag register and in dst. It takes component-wise subtraction of src0 and src1, evaluating the conditional code (excluding NS signal) based on the conditional modifier, and storing the conditional bits in bit-packed form in the destination flag register and all bits of dst channels. If the dst is not null, for the enabled channels, then all bits of the destination channel will contain the flag value for the channel. When the instruction operates on packed word format, one general register may store up to 16 such comparison results. In DWord format, one general register may store up to 8 results.
A conditional modifier must be specified; the conditional modifier field cannot be 0000b. The comparison does not use the NS (NaN source) signals, as described in the Creating Conditional Flags section. Accordingly the conditional modifier should not be .u (unordered).
For each enabled channel 0b or 1b is assigned to the appropriate flag bit and 0/all zeros or all ones (e.g, byte 0xFF, word 0xFFFF, DWord 0xFFFFFFFF) is assigned to dst.
When any source type is floating-point, the cmp instruction obeys the rules described in the tables in the Floating Point Modes section of the Data Types chapter.
Format:
[(pred)] cmp[.cmod] (exec_size) dst src0 src1
The cont instruction disables execution for the subset of channels for the remainder of the current loop iteration. Channels remain disabled until right before the while instuction or right before the condition check code block for the while instruction. If all enabled channels hit this instruction, jump to the instruction referenced by JIP where execution continues.
UIP should always reference the loop's associated while instruction. JIP should point to the last instruction of the inner most conditional block if the cont instruction is inside a conditional block. In case of the break instruction directly under the loop, the JIP and the UIP are the same.
If SPF is ON, the UIP must be used to update IP; JIP is not used in this case.
The following table describes the two 16-bit instruction pointer offsets. Both the JIP and UIP are signed 16-bit numbers, added to IP pre-increment. In GEN binary, JIP and UIP are at location src1 and must be of type W (signed word integer).
Format:
[(pred)] cont (exec_size) JIP UIP
The dim instruction moves the 64-bit immediate value into enabled channels of dst.
Format:
[(pred)] dim[.cmod] (exec_size) dst src0
Dot Product 3
The dp3 instruction performs a three-wide dot product on four-tuple vector basis and storing the same scalar result per four tuple to all four channels in dst. This instruction is similar to dp4 except that every fourth element of src0 (post-source-swizzle if present) is not involved in the computation.
The dot product of two vectors of equal length is the sum of the products of each pair of corresponding elements.
The dp4 instruction includes all four elements of each vector in the dot product. The dp2 instruction includes the first two elements of each vector in the dot product.
Format:
[(pred)] dp3[.cmod] (exec_size) dst src0 src1
else
endif
The f16to32 instruction converts the half precision float in src0 to single precision float and storing in dst.
Because this instruction does not have a 16-bit floating-point type, the source data type must be Word (W). The destination type must be F (Float).
Format:
[(pred)] f16to32[.cmod] (exec_size) dst src0
Single Precision Float to Half Precision Float
Find First Bit from LSB Side
Fraction
The halt instruction temporarily suspends execution for all enabled compute channels. Upon execution, the enabled channels are sent to the instruction at (IP + UIP), if all channels are enabled at HALT, jump to the instruction at (IP + JIP).
If the halt instruction is not inside any conditional code block, the values of JIP and UIP should be the same. If the halt instruction is inside a conditional code block, the UIP should be the end of the program and the JIP should be the end of the inner most conditional code block.
The UIP must point to a HALT Instruction.
If SPF is ON, the UIP must be used to update IP; JIP is not used in this case.
The following table describes the two 16-bit instruction pointer offsets. Both the JIP and UIP are signed 16-bit numbers, added to IP pre-increment. In GEN binary, JIP and UIP are at location src1 and must be of type W (signed word integer).
Format:
[(pred)] halt (exec_size) JIP UIP
__builtin_IB_get_default_device_queue
Sink common instructions (default = false)
spp-print-liveset-size
spp-print-base-pointers
__builtin_IB_simd_media_block_write_16_h
column position less than zero in '.loc' directive
__builtin_IB_get_max_workgroup_size
__llvm_deoptimize
sroa-random-shuffle-slices
Can't analyze slices for alloca: 
  A pointer to this alloca escaped by:
truncf
-i1:8:8-i8:8:8-i16:16:16-i32:32:32-i64:64:64-f32:32:32-f64:64:64-v16:16:16-v24:32:32-v32:32:32-v48:64:64-v64:64:64-v96:128:128-v128:128:128-v192:256:256-v256:256:256-v512:512:512-v1024:1024:1024-n8:16:32
 (splittable)
__builtin_IB_get_prefered_workgroup_multiple
sroa_raw_cast
enable-nontrivial-unswitch
unswitch-threshold
The cost threshold for unswitching a loop.
__builtin_IB_sub_group_reduce_OpGroupSMax
unexpected token in '.purgem' directive
keep-loops
__builtin_IB_get_block_simd_size
forward-switch-cond
__builtin_IB_sub_group_reduce_OpGroupSMin
merge
simplifycfg
 contract
MaxNumOfInputSignatureEntries
spec-exec-max-not-hoisted
igc-device-enqueue-func-analysis
__builtin_IB_sub_group_scan_OpGroupSMax
igc-air-function-builder
puts
fputc
spec-exec-only-if-divergent-target
Dynamic Texture Folding
malloc
igc-device-enqueue-func-resolution
enable-noalias-to-md-conversion
__builtin_IB_sub_group_scan_OpGroupFAdd
savedstack
.exit
uname
struct._sampler_t
DeviceEnqueueFuncsResolution
.seh_endprologue
llvm.genx.GenISA.WaveAll
.noexc
.lr.ph
12write_imagei20ocl_image2d_array_woDv4_iiS0_
expected ',' after case value
error decoding instruction (no compacted form)
unsupported pseudo op (sub function of 
: invalid operation format
converting unary/binary Align16 dst to equivalent Align1
invalid addressing mode on dst
unsupported Align16 ternary destination for SIMD{8,16} (must be .xywz)
Align16 branches not supported
%s: invalid register file
swizzle X could not be retrieved
GED reports error (
src%d: inconvertible align16 operand
invalid addressing mode in src%d
Region::INVALID
12write_imagei14ocl_image3d_woDv4_iiS0_
expected '(' (start of execution size info)
old-style access to mme via acc (use mme%d for acc%d)
expected constant integer expression
right operand to operator must be integral
qnan
branching operands may not perform arithmetic on labels
syntax error in constant expression
duplicate instruction options
Atomic mutually exclusive with NoPreempt
NoMask goes precedes predication as (W) for WrEn: e.g. (W) op (..) ...   or    (W&f0.0) op (..) ..
H1 is obsolete; use M0 in execution offset: e.g. op (16|M0) ...
N2 is obsolete; use M4 in execution offset: e.g. op (4|M4) ...
N5 is obsolete; use M16 in execution offset: e.g. op (4|M16) ...
invalid default execution size; must be 1, 2, 4, 8, 16, 32
unexpected directive name
invalid mnemonic
expected predication control
jmpi must have (W) specified (automatically adding)
conditional modifier follows execution mask info: e.g. op (16|M0)  (le)f0.0 ...
unexpected subfunction for op
src0 must be a register
deprecated flag modifier syntax: 
flag register must be same for predication and flag modifier
expected indirect address offset
__builtin_spirv_OpGetKernelLocalSizeForSubgroupCount
implicit type on dst should be omitted
send operand subregisters have no effect and are deprecated syntax
old-style math macro register (use mme)
acc3
acc9
this doesn't support regioning
%s.Src%d region should be implicit
syntax error in source region
syntax error in region (width)
subregister out of bounds
hex literal too big for type
literal is out of bounds for type %s
immediate descriptor expression must be integral
rndu
ThreadGroupSize_X
yyset_column called with no buffer
fatal error - scanner input buffer overflow
atomic load must have explicit non-zero alignment
invalid message
malformed register range
address offset out of bounds for message type (>
expected surface index
missing %s argument
address range includes header (extra reg), but format does not allow for it
encode error
invalid state
0.15.17
cmpxchg operand must be a pointer
WARNING: 
llvm.amdgcn.image.sample.c.cd.cl.o.2darray
llvm.amdgcn.image.sample.c.cd.cl.o.3d
llvm.amdgcn.image.sample.c.cd.o.1d
mulh
llvm.amdgcn.image.sample.c.cd.o.3d
llvm.amdgcn.image.sample.c.cd.o.cube
llvm.amdgcn.image.sample.c.cl.1darray
cmpn
llvm.amdgcn.image.sample.c.cl.o.1d
llvm.amdgcn.image.sample.c.cl.o.1darray
llvm.amdgcn.image.sample.c.cl.o.3d
llvm.amdgcn.image.sample.c.d.1darray
llvm.amdgcn.image.sample.c.d.2d
41intel_work_group_vme_mb_multi_check_16x16PU3AS3jjjjDv2_ii14ocl_image2d_ro14ocl_image2d_ro14ocl_image2d_ro11ocl_sampler
llvm.amdgcn.image.sample.c.d.cl.3d
llvm.amdgcn.image.sample.c.d.cl.cube
llvm.amdgcn.image.sample.c.d.cl.o.2d
endif
llvm.amdgcn.image.sample.c.d.cube
llvm.amdgcn.image.sample.c.d.o.1d
llvm.amdgcn.image.sample.c.d.o.2d
break
llvm.amdgcn.image.sample.c.l.1darray
llvm.amdgcn.image.sample.c.l.2d
llvm.amdgcn.image.sample.c.l.cube
halt
llvm.amdgcn.image.sample.c.l.o.2darray
llvm.amdgcn.image.sample.c.l.o.3d
igc-phielimination
return
llvm.amdgcn.image.sample.c.lz.cube
llvm.amdgcn.image.sample.c.lz.o.1d
llvm.amdgcn.image.sample.c.lz.o.2darray
join
llvm.amdgcn.image.sample.c.o.1darray
llvm.amdgcn.image.sample.c.o.2d
llvm.amdgcn.image.sample.c.o.3d
pseudo_fcall
llvm.amdgcn.image.sample.cd.2darray
llvm.amdgcn.image.sample.cd.3d
llvm.amdgcn.image.sample.cd.cl.2d
pseudo_exit
llvm.amdgcn.image.sample.cd.cl.o.1d
llvm.amdgcn.image.sample.cd.cl.o.1darray
47intel_work_group_vme_mb_multi_bidir_check_16x16PU3AS3jjjjDv2_ihhi14ocl_image2d_ro14ocl_image2d_ro14ocl_image2d_ro14ocl_image2d_ro11ocl_sampler
pseudo_fc_ret
llvm.amdgcn.image.sample.cd.o.1darray
llvm.amdgcn.image.sample.cd.o.2d
llvm.amdgcn.image.sample.cd.o.cube
sada2
llvm.amdgcn.image.sample.cl.2darray
llvm.amdgcn.image.sample.cl.3d
llvm.amdgcn.image.sample.cl.o.1d
llvm.amdgcn.image.sample.cl.o.cube
llvm.amdgcn.image.sample.cube
llvm.amdgcn.image.sample.d.2d
llvm.amdgcn.image.sample.d.cl.1darray
line
Lower GEP of Private Memory to Register Pass
llvm.amdgcn.image.sample.d.cl.o.2darray
llvm.amdgcn.image.sample.d.cl.o.3d
llvm.amdgcn.image.sample.d.o.1d
llvm.amdgcn.image.sample.d.o.3d
llvm.amdgcn.image.sample.d.o.cube
llvm.amdgcn.image.sample.l.1darray
pseudo_sada2
llvm.amdgcn.image.sample.l.o.1d
llvm.amdgcn.image.sample.l.o.1darray
llvm.amdgcn.image.sample.l.o.3d
send
llvm.amdgcn.image.sample.lz.2d
llvm.amdgcn.image.sample.lz.2darray
52intel_sub_group_avc_ime_evaluate_with_dual_reference14ocl_image2d_ro14ocl_image2d_ro14ocl_image2d_ro11ocl_sampler33intel_sub_group_avc_ime_payload_t
sends
llvm.amdgcn.image.sample.lz.o.3d
llvm.amdgcn.image.sample.lz.o.cube
llvm.amdgcn.image.sample.o.2d
llvm.amdgcn.image.store.1d
llvm.amdgcn.image.store.1darray
llvm.amdgcn.image.store.2darray
pseudo_store_be_fp
llvm.amdgcn.image.store.mip.1d
llvm.amdgcn.image.store.mip.1darray
llvm.amdgcn.image.store.mip.3d
pseudo_caller_save
llvm.amdgcn.init.exec
llvm.amdgcn.init.exec.from.input
LowerGEPForPrivMem
pseudo_callee_save
llvm.amdgcn.lerp
llvm.amdgcn.log.clamp
llvm.amdgcn.mbcnt.lo
lifetime
llvm.amdgcn.msad.u8
llvm.amdgcn.ps.live
llvm.amdgcn.queue.ptr
DebugInfoPlaceholder
llvm.amdgcn.rsq
llvm.amdgcn.rsq.clamp
llvm.amdgcn.s.dcache.inv
pseudo_or
llvm.amdgcn.s.decperflevel
llvm.amdgcn.s.getpc
64intel_sub_group_avc_ime_evaluate_with_single_reference_streamout14ocl_image2d_ro14ocl_image2d_ro11ocl_sampler33intel_sub_group_avc_ime_payload_t
pseudo_not
llvm.amdgcn.s.sleep
llvm.amdgcn.s.waitcnt
llvm.amdgcn.sad.u8
scaled untyped surface read
llvm.amdgcn.sdot8
llvm.amdgcn.set.inactive
llvm.amdgcn.sin
scaled A64 untyped surface read
llvm.amdgcn.udot2
llvm.amdgcn.udot4
llvm.amdgcn.update.dpp
scaled untyped surface write
llvm.amdgcn.workgroup.id.y
scaled A64 untyped surface write
Controls count of merged loads
scaled A64 scattered write
llvm.arm.cdp
llvm.arm.cdp2
llvm.arm.crc32cb
unrecognized DC2 message
llvm.arm.crc32w
llvm.arm.dbg
llvm.arm.dsb
render target read
llvm.arm.ldaexd
llvm.arm.ldc
llvm.arm.ldcl
llvm.arm.mcr2
llvm.arm.mcrr
63intel_sub_group_avc_ime_evaluate_with_single_reference_streamin14ocl_image2d_ro14ocl_image2d_ro11ocl_sampler33intel_sub_group_avc_ime_payload_t51intel_sub_group_avc_ime_single_reference_streamin_t
llvm.arm.neon.aese
llvm.arm.neon.aesimc
llvm.arm.neon.sha1c
unaligned oword block read
llvm.arm.neon.sha1su0
llvm.arm.neon.sha1su1
llvm.arm.neon.sha256h2
dword scattered read
llvm.arm.neon.vabdu
llvm.arm.neon.vabs
llvm.arm.neon.vbsl
hword block read
llvm.arm.neon.vcvtfp2fxs
llvm.arm.neon.vcvtfp2fxu
Controls count of merged stores
byte scattered read
llvm.arm.neon.vcvtns
llvm.arm.neon.vcvtnu
llvm.arm.neon.vhadds
hword block write
llvm.arm.neon.vld1
llvm.arm.neon.vld1x2
llvm.arm.neon.vld1x4
hword aligned block write
llvm.arm.neon.vld3dup
llvm.arm.neon.vld3lane
llvm.arm.neon.vld4lane
dword scattered write
llvm.arm.neon.vminnm
llvm.arm.neon.vmins
66intel_sub_group_avc_ime_evaluate_with_single_reference_streaminout14ocl_image2d_ro14ocl_image2d_ro11ocl_sampler33intel_sub_group_avc_ime_payload_t51intel_sub_group_avc_ime_single_reference_streamin_t
unrecognized DC0 message
llvm.arm.neon.vpadalu
llvm.arm.neon.vpadd
llvm.arm.neon.vpmaxs
scratch write
llvm.arm.neon.vqabs
llvm.arm.neon.vqadds
llvm.arm.neon.vqdmulh
transpose read
llvm.arm.neon.vqneg
llvm.arm.neon.vqrdmulh
llvm.arm.neon.vqrshiftnu
untyped atomic operation
llvm.arm.neon.vqshiftnsu
untyped atomic operation simd4x2
IGC Memory Optimization
media block read
llvm.arm.neon.vrecpe
llvm.arm.neon.vrecps
llvm.arm.neon.vrinta
typed atomic operation
llvm.arm.neon.vrintx
llvm.arm.neon.vrintz
llvm.arm.neon.vrshifts
untyped atomic float add
llvm.arm.neon.vshiftins
llvm.arm.neon.vshifts
llvm.arm.neon.vst1x2
media block write (non-iecp)
llvm.arm.neon.vst2lane
llvm.arm.neon.vst3
52intel_sub_group_avc_ref_evaluate_with_dual_reference14ocl_image2d_ro14ocl_image2d_ro14ocl_image2d_ro11ocl_sampler33intel_sub_group_avc_ref_payload_t
atomic counter operation simd4x2
llvm.arm.neon.vtbl4
llvm.arm.neon.vtbx1
llvm.arm.neon.vtbx4
a64 gathering read
llvm.arm.qasx
llvm.arm.qsax
llvm.arm.qsub16
a64 untyped atomic operation
llvm.arm.sel
llvm.arm.set.fpscr
llvm.arm.shasx
a64 block read
llvm.arm.smlabb
llvm.arm.smlabt
IGC Memory Optimization, the 2nd
a64 untyped atomic float add
llvm.arm.smlawb
llvm.arm.smlawt
llvm.arm.smlsld
a64 scattered write
llvm.arm.smulbb
llvm.arm.smulbt
llvm.arm.smultt
llvm.arm.space
llvm.arm.ssat
llvm.arm.ssub16
.sat
llvm.arm.stc2l
llvm.arm.stcl
54intel_sub_group_avc_sic_evaluate_with_single_reference14ocl_image2d_ro14ocl_image2d_ro11ocl_sampler33intel_sub_group_avc_sic_payload_t
llvm.arm.uadd16
llvm.arm.uadd8
llvm.arm.uhadd8
, resLen=
llvm.arm.uhsub8
llvm.arm.undefined
llvm.arm.uqadd8
, extMsgLen=
llvm.arm.usad8
llvm.arm.usada8
llvm.arm.usax
llvm.arm.uxtab16
MergeURBWrites
llvm.hexagon.A2.absp
llvm.hexagon.A2.abssat
llvm.hexagon.A2.addh.h16.hl
llvm.hexagon.A2.addh.h16.sat.hl
llvm.hexagon.A2.addh.h16.sat.lh
llvm.hexagon.A2.addh.l16.hl
llvm.hexagon.A2.addp
llvm.hexagon.A2.addpsat
llvm.hexagon.A2.and
llvm.hexagon.A2.asrh
llvm.hexagon.A2.combine.hh
llvm.hexagon.A2.maxp
llvm.hexagon.A2.maxu
llvm.hexagon.A2.minp
llvm.hexagon.A2.negp
llvm.hexagon.A2.negsat
llvm.hexagon.A2.notp
llvm.hexagon.A2.sat
llvm.hexagon.A2.satb
llvm.hexagon.A2.satuh
llvm.hexagon.A2.subh.h16.lh
llvm.hexagon.A2.subh.h16.ll
Align1}
llvm.hexagon.A2.subh.l16.sat.hl
llvm.hexagon.A2.subh.l16.sat.ll
llvm.hexagon.A2.subsat
llvm.hexagon.A2.svavgh
llvm.hexagon.A2.svavghs
llvm.hexagon.A2.svsubh
llvm.hexagon.A2.sxth
llvm.hexagon.A2.sxtw
llvm.hexagon.A2.tfril
acc1
llvm.hexagon.A2.vabsh
llvm.hexagon.A2.vabshsat
__builtin_IB_convert_pipe_wo_to_intel_pipe
llvm.hexagon.A2.vaddubs
llvm.hexagon.A2.vadduhs
llvm.hexagon.A2.vavgh
llvm.hexagon.A2.vavgubr
llvm.hexagon.A2.vavguh
llvm.hexagon.A2.vavguw
llvm.hexagon.A2.vcmpbeq
llvm.hexagon.A2.vcmpbgtu
llvm.hexagon.A2.vcmphgtu
llvm.hexagon.A2.vconj
__private
llvm.hexagon.A2.vminh
llvm.hexagon.A2.vminub
llvm.hexagon.A2.vminw
tdr0
llvm.hexagon.A2.vnavgw
llvm.hexagon.A2.vnavgwcr
llvm.hexagon.A2.vraddub
unknown architecture reg
llvm.hexagon.A2.vsubh
llvm.hexagon.A2.vsubhs
llvm.hexagon.A2.vsubuhs
llvm.hexagon.A2.xorp
llvm.hexagon.A2.zxtb
_Z17get_global_offsetj
llvm.hexagon.A4.cmpbeq
llvm.hexagon.A4.cmpbeqi
llvm.hexagon.A4.cmpbgtu
llvm.hexagon.A4.cmphgt
llvm.hexagon.A4.cmphgti
llvm.hexagon.A4.cmphgtui
.acc
llvm.hexagon.A4.modwrapu
llvm.hexagon.A4.orn
llvm.hexagon.A4.rcmpeqi
//.declare 
llvm.hexagon.A4.round.ri.sat
llvm.hexagon.A4.round.rr
nounwind
r (spilled)
llvm.hexagon.A4.vcmpbgtui
llvm.hexagon.A4.vcmpheqi
llvm.hexagon.A4.vcmpweqi
f (spilled)
llvm.hexagon.A4.vrmaxuh
llvm.hexagon.A4.vrmaxuw
llvm.hexagon.A4.vrminh
Base=r
llvm.hexagon.A6.vcmpbeq.notany
llvm.hexagon.A6.vcmpbeq.notany.128B
llvm.hexagon.C2.andn
llvm.hexagon.C2.bitsset
llvm.hexagon.C2.cmpeq
get_sub_group_id
 rf=
llvm.hexagon.C2.cmpgtp
llvm.hexagon.C2.cmpgtu
llvm.hexagon.C2.cmplt
 type=
llvm.hexagon.C2.muxii
llvm.hexagon.C2.muxir
llvm.hexagon.C2.not
llvm.hexagon.C2.tfrrp
llvm.hexagon.C2.vitpack
llvm.hexagon.C4.and.and
 words
Convert load/store on doubles into store/loads on i32 or float types
reqd_work_group_size(
 (a0.
function
constant<
 (spilled -> 
dom-conditions-max-uses
 (spilled)
BadAssumption
 Type=
Detected conflicting code assumptions. Program may have undefined behavior, or compiler may have internal error.
 Input_Output
Unable to determine comdat of alias!
 Input
min-legal-vector-width
 Output
__ashlti3
__lshrdi3
avx512.mask.movshdup.
wany4h
__ashrdi3
all4h
__ashldi3
any2h
__mulsi3
any4h
Broken module found, compilation aborted!
any8h
intel_reqd_sub_group_size(
any16h
__muloti4
any32h
__divsi3
all2h
lane
all8h
__udivhi3
all16h
__mulodi4
all32h
__modqi3
anyv
Allocation failed
allv
intel_reqd_workgroup_walk_order(
f0.0
__umodqi3
__umoddi3
Pointer ABI alignment must be a power of 2
__addsf3
perror
__gcc_qadd
image
__gcc_qsub
__mulxf3
Invalid preferred alignment, must be a power of 2
bool
__divdf3
__subtf3
fmaf
DIFlagZero
Does pattern matching
__powixf2
none
__gcc_dtoq
DIFlagArtificial
mem_fence
__extendsfdf2
pseudo_kill
putc
spill
__truncxfhf2
fill
DIFlagRValueReference
CodeGenPatternMatch
(abs)
__gcc_qtos
-(abs)
__gcc_qtod
DIFlagMainSubprogram
__fixsfti
__trunctfsf2
__fixxfsi
CSK_MD5
CodeGenPatternMatchPass
module asm "
__fixunssfdi
pass-remarks-missed
__fixunsdfti
be_fp
__fixtfdi
be_sp
__fixunstfsi
StackCall
DW_CC_LLVM_IntelOclBicc
Spill candidate 
PrimIdLocation
 intf:
__floatsixf
__floatdisf
!AnalysisAliasing
(Liverange is local starting at line #
__floattisf
 and ending at line #
__floatsidf
 --- spilled
__floatunsisf
--max RP: 
static-func-full-module-prefix
--avg # neighbors: 
KillPixel
--max # neighbors: 
__floatundisf
__floatunditf
Roots: 
round-robin
__floatuntitf
first-fit
llvm.genx.GenISA.PullSnappedBarys
 BCR
__gcc_qeq
 graph coloring
DeletedBBs:
--# variables: 
DiscardRet
Caller save size: 
__gesf2
 bytes for fcall at cisa id 
__gcc_qge
Callee save size: 
_tmp
 bytes
__gcc_qlt
Total frame size: 
__gcc_qne
predicate
__gcc_qle
src0
__builtin_IB_get_local_id_x
src1
postDiscard
src2
__floatsisf
Def not found for use 
__gcc_qunord
) at CISA offset 
virtual_binding_table_cs
, src line 
__llvm_memcpy_element_unordered_atomic_8
=== Uses with reaching def - Flags ===
llvm.genx.GenISA.QuadPrefix
=== Uses with reaching def - Address ===
__llvm_memmove_element_unordered_atomic_4
=== Uses with reaching def - GRF ===
image2d_t
(Use -nolocalra switch for accurate results of uses without reaching defs)
Pixel shader lowering pass
=== Variables used but never defined ===
__llvm_memset_element_unordered_atomic_4
 (General)
_Unwind_Resume
 (Address)
global_size_z
 (Flag)
__sync_val_compare_and_swap_8
--address RA iteration 
__llvm_memset_element_unordered_atomic_2
Address_RA
__sync_lock_test_and_set_4
--flag RA iteration 
virtual_binding_table_hs
Flag_RA
igc-pixel-shader-addmask
--hybrid RA--
__sync_fetch_and_add_4
--skip hybrid RA due to high pressure: 
__sync_fetch_and_sub_1
=== Register Allocation ===
base_instance
Function: 
__sync_fetch_and_sub_16
Kernel: 
llvm.genx.GenISA.ROUNDNE
--GRF RA iteration 
__sync_fetch_and_and_8
air.get_function_pointer_visible_function_table
--split local send--
This is the pixel shader lowering pass 
--enable failSafe RA
__sync_fetch_and_or_8
--rematerialize
__sync_fetch_and_xor_2
--global send split
--# variables spilled: 
__sync_fetch_and_nand_1
--current spill size: 
__sync_fetch_and_or_4
Spill_GRF
__sync_fetch_and_nand_16
Local RA used 
air.atomic_exchange_explicit_texture
 GRFs
igc-pixel-shader-lowering
rmdir
: (Pred: 
__sync_fetch_and_umax_4
 Succ: 
__llvm_memset_element_unordered_atomic_1
__sync_fetch_and_min_2
max pressure: 
__sync_fetch_and_max_8
 inst(s)
__sync_fetch_and_umin_1
Dcl %s is Default32Bit but assignment is not Even aligned
a64 dword scattering write
's LRA assignment 
Lower discard intrinsics
 doesnt interfere with 
__atomic_load
Start verification for kernel: 
__atomic_load_4
) is split
bindless_image_cube_t
__atomic_store_1
) and 
__sync_fetch_and_umin_16
) are overlapping with incompatible emask but not masked as interfering
__atomic_store_16
) use overlapping physical assignments but not marked as interfering
bindless_image2d_array_msaa_t
End verification for kenel: 
igc-lower-discard
Default16Bit
__atomic_exchange_8
Default32Bit
__atomic_compare_exchange_1
Default64Bit
bindless_image1d_array_t
NonDefault
__atomic_compare_exchange_16
Undetermined
sinhl
-----
__atomic_fetch_add_8
DefaultPredicateMask
resID
(size = 
PixelShaderLowering
, spill cost = 
sscanf
, degree = 
__atomic_fetch_and_2
wait
__atomic_fetch_or_1
__atomic_fetch_sub_4
mem_fence
__atomic_fetch_or_16
pseudo_kill
target-cpu
spill
Lower Discard
fill
stat
--trivial RA
__atomic_fetch_nand_4
Allocated 100% GRF ranges without graph coloring.
llvm.genx.GenISA.RenderTargetRead
--local RA--
Could not find leader
--round-robin 
__atomic_fetch_xor_8
BCR 
invalid hexadecimal floating-point constant: expected at least one significand digit
invalid hexadecimal floating-point constant: expected exponent part 'p'
--first-fit 
bitset set argument out of range
Total GRF ranges: 
statvfs64
GRF ranges allocated by local RA: 
invalid octal number
% allocated by local RA
apple.cl.arg_metadata
Undoing local RA assignments
invalid character in input
Collect information related to domain shader
asm-macro-max-nesting-depth
The maximum nesting depth allowed for assembly macros.
redefinition of '
.set
Cannot load/store from pointer
.asciz
Recursive use of '
.value
bool
Invalid constant reference
PositionDepAnalysis
.8byte
.float
Explicit call type is not a function type
.balign
none
.quad
.p2alignw
Explicit invoke type is not a function type
SetMathPrecisionForPositionOutput
expected index
.lazy_reference
EXTRACTVAL: Invalid struct index
.reference
.zero
.comm
DataElements:MDC_DB_HW
bool
PreRA rematerialize flag
.incbin
.rept
' vs current: '
.endr
.include
none
===== LVN =====
GTPIN_IGC_OCL Error: Failed to call GTPIN_IGC_OCL_UpdateKernelInfo
Number of instructions removed: 
igc-pre-ra-remat-flag
insertCallReturnVar
.iflt
callReturn
.ifnb
===== Bank conflicts =====
_igc_bif_%s_%s_size
Found 
.ifnes
 conflicts (
DW_TAG_unspecified_parameters
 locals, 
.elseif
 globals) in kernel: 
Types Legalization pass
 // $
Use LivenessAnalysis to calculate register pressure
.space
before.
.stabs
after.
no-infs-fp-math
cleanMessageHeader
.cv_linetable
renameRegister
.skip
newLocalDefHoisting
.cv_stringtable
newLocalCopyPropagation
igc-process-func-attributes
sendFusion
igc-registerestimator
cselPeepHoleOpt
.abort
optimizeLogicOperation
.cfi_endproc
HWConformityChk
deviceEnqueueGetObjectId
preRA_Schedule
.cfi_def_cfa_register
regAlloc
DW_TAG_set_type
removeLifetimeOps
.cfi_lsda
countBankConflicts
image1d_buffer_t
removeRedundMov
RegisterEstimator
removeEmptyBlocks
.cfi_escape
insertFallThroughJump
.cfi_undefined
reassignBlockIDs
Analyzes CallGraphSCC
evalAddrExp
.macros_off
FoldAddrImmediate
.cfi_restore
chkRegBoundary
.endmacro
localSchedule
Add implicit args to all functions in the module and adjusts call to these functions
NoDD
SimplifyConstant
HWWorkaround
.altmacro
insertInstLabels
insertHashMovs
air64-apple-macosx
insertDummyCompactInst
.dc.l
mergeScalarInst
DW_TAG_enumerator
lowerMadSequence
.dcb
localSize
ifCvt
PromoteConstant
dumpPayload
.dcb.w
normalizeRegion
.ds.b
checkBarrierUsage
createR0Copy
.ds.s
initializePayload
.dcb.s
cleanupBindless
.addrsig
countGRFUsage
splitVariables
PruneUnusedArguments
changeMoveType
strtod
reRAPostSchedule
unexpected token at start of statement
accSubPostSchedule
.cfi_same_value
parsed instruction: [
reassociateConst
 for .file directives
split4GRFVars
expected string parameter for '.ifeqs' directive
addFFIDProlog
loadThreadPayload
This is an analysis pass for pulling constants for short shaders 
insertFenceBeforeEOT
unexpected token in '.ifdef'
insertScratchReadBeforeEOT
unexpected token in '.else' directive
mapOrphans
float2x3
_UIP
macros cannot be nested more than 
             === Local Definition Hoisting Optimization ===
expected identifier after '.ifdef'
Number of defs hoisted: 
<instantiation>
             === Message Header Optimization ===
bool2
 is reduced from 
Analyse shader to determine push const threshold
 to 
parameter named '
 instructions. 
' in macro '
% instructions of this kernel are removed.
double2
%s_optreport.txt
Wrong number of arguments
             === Merge Scalar Optimization ===
strtoll
Number of optimized bundles:
out of range literal value
Number of instructions saved:
float3x2
dynamicBufferOffset.bufferId
p2align directive with no operand(s) is ignored
wait
alignment directive can never be satisfied in this many bytes, ignoring maximum bytes expression
long2
mem_fence
'.fill' directive with negative size has no effect
pseudo_kill
 in directive
spill
non-local symbol required
fill
uchar2
C:\Intel\nodd.txt
ConstantBufferIndexedWithInstanceId
expected comma after first string for '.ifnes' directive
unexpected token in '.abort' directive
char2
expected string in '.include' directive
system
unexpected token in '.incbin' directive
image2d_msaa_t
promotes the values to be arguments
Count is negative
.endr
bool
short2
expected identifier in '.irpc' directive
unexpected token in '
unmatched '.endr' directive
uint2
igc-push-analysis
none
unexpected token in '.bundle_unlock' directive
unexpected token in '.file' directive
int2
file 0 not supported prior to DWARF-5
tmpfile64
file number less than one in '.loc' directive
half2
PushAnalysis
is_stmt value not the constant value of 0 or 1
unknown sub-directive in '.loc' directive
float2
bool
unexpected token in '.cv_file' directive
is_stmt value not 0 or 1
function id already allocated
air.raster_order_group
Scalarizer in codegen
llvm.genx.GenISA.URBReadOutput
none
file number less than one in '
Fix Inst Size for:
negative count has no effect
split into: 
unexpected token in '.cv_loc' directive
's live in: 
expected 'inlined_at' identifier in '.cv_inline_site_id' directive
File id less than zero in '.cv_inline_linetable' directive
's live in size: 
mach
's live out: 
igc-scalarizer-in-codegen
's live out size: 
unexpected tokens
PreRegAlloc
.eh_frame
air.thread_index_in_threadgroup
SP_GRF
unexpected token in '.cfi_signal_frame'
TM_GRF
expected symbol name
SP_MSG
macro '
FL_MSG
air.intersection
FL_GRF
Scalarizer in Codegen
FL_Send
no matching '.endmacro' in definition
unexpected '
tmp_shl_dst_bti
tmp_shl_y_offset
' is not defined
tmp_shl
 nsz
.error argument must be a string
cond_dim3_true
GenX Register Pressure Analysis
expression is negative
expression must be relocatable
__TessNumControlPoints
literal value out of range for directive
expression is not a constant value
unexpected expression in align
air.emulation
bool
igc-RegisterPressureEstimate
Expected End of Statement
qword ptr 
.even
 nuw
; Error: Block without parent!
none
invalid octal escape sequence (out of range)
%s.asm
image2d_array_msaa_depth_t
Fail to open 
RegisterPressureEstimate
SpillMemOffset
vprintf
vcoshf
invalid token in expression
DW_AT_bit_size
brackets expression not supported on this target
llvm.genx.GenISA.VirtualBindingTableBaseLocation
expected section directive before assembly directive
.text
IGC PreRA Scheduler
AsmName
.def
ArgSize
.endef
RetValSize
Air Function Attribute Update
perThreadInputSize
.secidx
Extern
.section
Callable
.seh_endproc
Caller
air.set_kernel_buffer_compute_command.p2i8
Composable
igc-PreRAScheduler
Entry
.seh_pushreg
Input
.seh_savereg
Input_Output
Insert markers around builtin calls marked with fast flag
NoWidening
.weak
Wrong input variable is used
.seh_handlerdata
ONLY ADDC AND SUBB are supported by this API
expected comma in directive
Destination for Arithmetic Instruction is NULL
rgba16unorm
BuiltinR0
__builtin_IB_memcpy_generic_to_private
BuiltinA0
expected ',' after true destination
BuiltinA0Dot2
newest
hw_tid
section '
samplerHeader
discard
Number of parameters does not match
a handler attribute must begin with '@'
LINE: 
label%d
FUNCTION: 
__builtin_IB_memcpy_private_to_generic
CHECK_NUM_OPNDS
 and
thread_local(initialexec) 
.desc
.indirect_symbol
NEGABS
.dump
.pushsection
thread_x
.secure_log_unique
thread_y
air.render_target
local_id_x
__builtin_IB_memcpy_private_to_private
local_id_y
.end_data_region
group_id_x
.constructor
group_id_y
voidProgram
group_id_z
.fvmlib_init0
group_count_x
.data_region
group_count_y
.literal16
TessellationShaderDomain
retval
__builtin_IB_memcpy_global_to_private
.non_lazy_symbol_pointer
hw_id
.objc_cat_inst_meth
color
HSOutputControlPointCount
global_data_base
.objc_class_vars
bitset test argument out of range
.mod_term_func
before.remat
.objc_instance_vars
after.remat
Pass walks through kernel and checks if there remains any unresolved air builtin function, in which case it is flagged as an error.
Skip block with instructions 
__builtin_IB_memcpy_private_to_global
Skip block with rp 
.objc_module_info
Before scheduling, 
.objc_string_object
After scheduling for presssure, 
AirRasterOrderGroups
After scheduling for latency, 
.static_data
[---] 
vexpm1f
the max pressure is 
.tlv
Max pressure instructions are: 
image2d_depth_t
schedule reverted due to mischeduling.
__builtin_IB_memcpy_constant_to_private
schedule not committed due to no change.
.macosx_version_min
schedule committed for latency.
unexpected token in '.desc' directive
the pressure is increased to 
AIR to IGC metadata parser
schedule committed with reduced pressure.
unable to emit indirect symbol attribute for: 
the reduced pressure is 
.ios_version_min
schedule reverted, 
unexpected token in '.subsections_via_symbols' directive
%s.bb%d.schedule
__builtin_IB_memcpy_private_to_constant
expected identifier after '.section' directive
 ... 
__text
+++++++++++ 
expected 
 empty cycles 
__data
 +++++++++++
vlog10f
vtanhf
nodes
__TEXT
 Prio:
TrivialLocalMemoryOpsElimination
 Earl:
__builtin_IB_memcpy_local_to_private
 Occu:
.secure_log_unique used but AS_SECURE_LOG_FILE environment variable unset.
%s.bb%d.dag.dot
unexpected token in '.tbss' directive
digraph DAG {
LogicalAndToBranch
#CCCCCC
__thread_bss
#FFEE99
.secure_log_unique specified multiple times
#FFFFFF
invalid '.zerofill' directive size, can't be less than zero
[label="
.seg2
__builtin_IB_memcpy_private_to_local
Lower inputs outputs for domain shader
, style="filled", fillcolor="
 (function: 
%d->%d
vISA_WAWSubregHazardAvoidance
__la_symbol_ptr
orange
unexpected token in '.end_data_region' directive
grey
__literal8
,color="
__builtin_IB_to_local
__OBJC
%s.bb%d.nodes
__category
vISA_NoAtomicSend
__cls_refs
__thread_ptr
,type="
__meta_class
%s.%s.dot
vISA_IGAEncoder
size = "80, 100";
__builtin_IB_to_private
// Nodes
vISA_GenerateBinary
[shape=record, label="{ID : 
both values to select must have same type
 PRIORITY : 
__thread_vars
__string_object
 ETIME : 
invalid OS minor version number, integer expected
Resolve generic address space
} "];
DW_AT_byte_stride
DW_AT_call_line
// Edges
.u2f.inner.merge.lo
prof
Number of operands mismatch between CISA instruction description and value passed in.
unknown platform name
ONE OF THE OPERANDS IS NULL!
vatanf
vasinhf
vatanhf
temp.isa
Could not open %s
vISA_LabelStr
Cannot open file %s
igc-gas-resolve
isaasmListFile.txt
.weakref
.internal
.visaasm
VISA_AsmFileName
.errors.txt
.bss.
 errors in vISA files.
.version
Please see error report written to the file 
.tbss.
Found a total of 
vISA_PlatformIsSet
Resolve compiler predefeind constants
init_array
nobits
vISA_ReRAPostSchedule
T252
llvm_linker_options
T255
Total
word
vISA_setA0toTdrForSendc
dword
igc-predefined-constant-resolve
qword
Verify if there is a pass dependency cycle.
oword
Linkage must be 'comdat'
 /EXPORT:
2GRF
llvm.module.flags
byte
expected commma
expected STT_<TYPE_IN_UPPER_CASE>, '#<type>', '%<type>' or "<type>"
(abs)
module (
(-abs)
unexpected token in '.ident' directive
safepoint-ir-verifier-print-only
vISA_dumpToCurrentDir
reserved0
Base nodes must have at least two operands
Access tag nodes must have the number of operands that is a multiple of 3!
No relocation available to represent this relative expression
This instruction shall not have a TBAA access tag!
ptrVec2ptrScl
FK_Data_1
FK_Data_2
FK_PCRel_1
-dotAll
line
FK_GPRel_1
FK_DTPRel_8
cosf
OPTPre
mulh
Old-style TBAA is no longer allowed, use struct-path TBAA instead
FK_SecRel_1
-dumpDebugConsoleOutput
FK_Data_Add_1
rndd
vacoshf
rndu
FK_Data_Sub_1
rnde
-dumpLiveness
rndz
sad2
Disable emission of the extended flags in .loc directives.
rsqrt
Enabled
-nocopyprop
reserved1C
NO_APP
reserved1D
dwarf-extended-loc
reserved1E
.ascii
-noregrenaming
UpdateOptPre
__svml_sin8
.note.GNU-stack
.weak
cbit
unsupported subtraction of qualified symbol
addr_add
expected assembly-time absolute expression
' (at offset '
-disableHFOpt
setp
OPTPost
 bytes
movs
non-zero initializer found in virtual section
-noScalarJmp
    
func
unable to write NOP sequence of 
label
, Index:
read_only
call
oword_ld
llvm.genx.GenISA.atomiccounterinc
oword_st
strtab_end
media_ld
-noreassoc
media_st
linetable_end
gather
scatter
as-secure-log-file-name
reserved3b
As secure log file name (initialized from AS_SECURE_LOG_FILE env variable)
oword_ld_unaligned
Check SIMD32 Profitability for OpenCL
reserved3d
DW_AT_rank
reserved3e
llvm-mc (based on LLVM 7.0.0)
reserved3f
Unterminated .bundle_lock when changing a section
sample
Emitting values inside a locked bundle is forbidden
sample_unorm
.comment
load
.bundle_align_mode cannot be changed once set
-forceMixMode
simd32-profit
fminmax
A Bundle can only have one Subtarget.
-foldEOT
bfrev
addc
Empty bundle-locked group is forbidden
subb
DTPREL
gather4_typed
-noroundrobin
scatter4_typed
Simd32Profitability
va_skl_plus
Intervals are contiguous
ifcall
-nolocalraroundrobin
faddr
TPOFF
file
GOTTPOFF
TLVP
reserved53
llvm.invariant.end parameter #2 must be a constant integer
vme_ime
TimeStatsCounter Start/Stop
vme_sic
GOTPAGE
vme_fbr
SIZE
vme_idm
-noloopra
reserved58
target1
barrier
PAGEOFF
sampler_cache_flush
tlsldo
fence
-nospillcleanup
raw_send
time-stats-counter
reserved5E
diff8
yield
reserved60
-spilloffset
reserved61
highera
reserved62
(module: ^
reserved63
got@ha
reserved64
-ratrace
reserved65
.demoted.zext
reserved66
toc@ha
fcall
tprel@h
fret
-verifyaugmentation
switchjmp
tprel@higher
sad2add
toc@h
plane
dtprel@l
goto
-presched-ctrl
sample_3d
Demote type safely
load_3d
PAGE
gather4_3d
dtprel@highesta
info_3d
-enable-noDD
rt_write_3d
got@tprel@ha
urb_write_3d
, live: 
typed_atomic
got@dtprel@ha
gather4_scaled
write_only
scatter4_scaled
igc-type-demote
reserved76
got@tlsld
reserved77
got@tlsld@ha
gather_scaled
-nofuse-typedWrites
scatter_scaled
LO16
llvm.genx.GenISA.broadcastMessagePhase
lifetime
LDGOT
sbarrier
-schedulerwindow
dword_atomic
Detect non-uniform usage of textures and samplers and check if they may be assumed uniform.
sqrtm
llvm.pow.f32
fputs$UNIX2003
divm
gotpcrel32@hi
-readSuppressionDepth
Allocation failed
dp4a
expression could not be evaluated
RESERVED_0
' cannot be used in assignment expr
reserved_1c
-output
reserved_1d
UniformAssumptions
reserved_1e
MCAlignFragment
reserved_3B
MCFillFragment
reserved_3D
-dumpcommonisa
reserved_3E
MCDwarfCallFrameFragment
reserved_3F
 Kind:
reserved_53
MCCVInlineLineTableFragment
reserved_58
-disableIGASyntax
samplr_cache_flush
VariableReuseAnalysis
reserved_5e
AddrSpaceCast vector pointer number of elements mismatch
reserved_60
 Alignment:
reserved_61
-uniqueLabels
reserved_62
reserved_63
 LayoutOrder:
reserved_64
                
reserved_65
Alias must point to a definition
reserved_66
Compute-once pass that provides a translation table for mapping attributes for LLVM values
3d_sample
, noRecurse: 
3d_load
 Size:
3d_gather4
-getfreegrfinfo
3d_info
 RangeEnd:
3d_rt_write
thread_group_size_hint
3d_urb_write
reserved_76
Reg:
reserved_77
TranslationTable
va_convolve_2d
Inst:(
va_minmax
 option: 
va_minmaxfilter
va_erode
__LD
va_dilate
image3d
va_boolcentroid
debug_names_begin
va_centroid
__apple_names
va_convolve_1d_v
Split loads/stores of big (or 3-element) vectors into smaller ones.
va_convolve_1d_h
__apple_namespac
va_convolve_1pixel
types_begin
va_floodfill
-compilerStats
va_lbpcreation
__debug_line
va_lbpcorrelation
objc_begin
va_correlationsearch
__debug_pubnames
va_hdc_convolve_2d
USAGE: Directory to dump VISA passes into
va_hdc_minmaxfilter
igc-vectorpreprocess
va_hdc_erode
Display available options (-help-hidden for more)
va_hdc_dilate
__debug_aranges
va_hdc_lbpcorrelation
USAGE: -TotalGRFNum <regNum>
va_hdc_lbpcreation
debug_macinfo
va_hdc_convolve_1d_h
__debug_str
va_hdc_convolve_1d_v
__LLVM_STACKMAPS
va_hdc_convolve_1pixel
resinfoptr@
svm_block_ld
VectorPreProcess
svm_block_st
.rodata.cst4
svm_gather
.gcc_except_table
svm_scatter
USAGE: File Name with isaasm paths.
svm_atomic
.debug_line_str
svm_gather4scaled
.debug_pubnames
svm_scatter4scaled
.debug_gnu_pubtypes
.debug_str
split
kernel_
.debug_macinfo
attr 
.apple_objc
"cm"
.apple_namespaces
"3d"
rng-seed
"cs"
.debug_rnglists
.decl P
.debug_abbrev.dwo
v_type=P 
sampleLCptr@
num_elts=
scalarize
.decl A
thumb
v_type=A 
.llvm_stackmaps
.decl S
.llvm_faultmaps
 v_type=S
.debug$S
 num_elts=
.debug$T
 v_name=
section_types_dwo
.decl T
section_abbrev_dwo
 v_type=T
elt0
.parameter 
addr_sec
.input 
.xdata
 offset=
.sxdata
.decl 
Cannot initialize MC for non-Windows COFF object files.
 v_type=G
Addr_Flag_RA
 alias=<
.version 
7E-M
.global_function 
elt1
.kernel 
DW_AT_body_begin
.funcdecl 
 Fragments:[
      
/// VISA Predefined Variables
  Interference
// .decl V
// .decl T
.linkonce
.kernel_attr Target=
,#write
Illegal or unimplemented CISA instruction (opcode, type): (
Encode+Emit
elt2
 /// $
setMessagePhaseX_legacy@
 for section 
track-memory
,none,
mach-o section specifier requires a segment whose length is between 1 and 16 characters
_global
mach-o section specifier uses an unknown section type
Reg Pressure Estimate
Elt0
aarch64
.signal
regular
.wait
le64
8byte_literals
.any
Analyze aggregate arguments
.all
non_lazy_symbol_pointers
S_NON_LAZY_SYMBOL_POINTERS
svm_
Elt1
block_
igc-agg-arg-analysis
mod_term_funcs
S_MOD_TERM_FUNC_POINTERS
.unaligned
S_GB_ZEROFILL
atomic
interposing
gather4scaled
S_16BYTE_LITERALS
scatter4scaled
S_DTRACE_DOF
Elt2
rope:
.function 
empty
FILE 
decI:"
LOC 
S_THREAD_LOCAL_INIT_FUNCTION_POINTERS
raw_sendc 
raw_send 
[:<:]]
raw_sendsc.
isneg
raw_sends.
Process vector loads/stores for explicit vISA variable layout
eot.
0123456789
S_ATTR_SELF_MODIFYING_CODE
start 
debug
end 
S_ATTR_EXT_RELOC
S_ATTR_LOC_RELOC
pixel_null_mask.
parent function id not introduced by .cv_func_id or .cv_inline_site_id
cps.
function id not introduced by .cv_func_id or .cv_inline_site_id
divS.
igc-vectorprocess
igc-fix-alignment
Not all chained regions terminated!
illegal
End of a chained region outside a chained region!
31x31
frame register and offset can be set at most once
15x15
offset is not a multiple of 16
 4x16
stack allocation size is not a multiple of 8
 1x16
register save offset is not 8 byte aligned
 1x1
VectorProcess
8_connect
4_connect
help
 31x31
 Off=
 15x15
, FixupSection=
.mod
 because its definition is unavailable
<RTI>
 = comdat 
cosl
-cl-std=CL1.2
<LRTW>
uavSerializeOnResID@
<CPS>
 personality 
<PS>
define 
 gc "
!DIExpression(
Kernel Header / Declare Errors: 
dso_local 
dllimport 
TooCostly
Instruction / Operand / Region Errors: 
vptrcast
label%d's name index(%d) is not valid
_copysign
S%d's name index(%d) is not valid
sideeffect 
S%d's number of elements(%d) is not vaild
 increases the cost of inlining 
T%d's name index(%d) is not valid
 comdat
T%d's number of elements(%d) is not valid
<null operand!>
Input V%d is out of bound [%d, %d)
, { 
Input V%d = [%d, %d) intersects with V%d = [%d, %d)
ivybridge
Explicit input %d must not follow an implicit input %d
vCastload
Input %d points to an invalid variable(%d)
target datalayout = "
Input %d's size(%d) does not agree with its variable (V%d)'s
attributes #
Input%d points to an invalid sampler index(%d)
write-relbf-to-summary
Input%d points to an invalid/predefined surface index(%d)
Input%d's size(%d) does not agree with its surface's
Input%d has invalid operand class(%d)
operands: {
Invalid opcode, value: 
14ocl_image3d
vISA instruction not supported on this platform
Collect information related to vertex shader
CISA instruction uses an illegal execution size.
, summary: (
CISA instruction uses an illegal predicate value.
 Error in CISA variable decl: 
Value: 
V%d's name index(%d) is not valid: %s
!DISubprogram(
V%d's type(%s) is not legal: %s
!DIEnumerator(
V%d's number of elements(%d) is out of range: %s
disable-symbolication
V%d's alias offset must be zero when it is not aliased: %s
Metadata: slot = 
Circular alias detected, alias index: %d
igc-collect-vertex-shader-properties
Aliased variable aliases to an invalid alias index. Variable count: %d. invalid index: %d. %s
!DILabel(
Variable decl's alias offset exceeds the bounds of the aliased variable decl allocation size: %s
!DIMacro(
V%d's variable alignment is not a valid alignment value: %s
Metadata: function = 
V%d's alias index must point to a valid CISA variable index between 0 and %d. Currently points to invalid index V%d: %s
%"type 
 Error in address variable decl: 
 addrspace(
A%d's name index(%d) is not valid: %s
<badref> = 
Max possible address registers are 16 on BDW+: %s
Null bytes are not allowed in names
 Error in predicate variable decl: 
Lower inputs outputs for vertex shader
P%d's name index(%d) is not valid: %s
P%d's number of elements(%d) is not valid: %s
/-------------------------------------------!!!KERNEL HEADER ERRORS FOUND!!!-------------------------------------------\
bitwidth for integer type out of range!
/--------------------------------------------!!!INSTRUCTION ERROR FOUND!!!---------------------------------------------\
          filter 
Error in CISA routine with name: 
commercial-at
Error Message: 
 void
Diagnostics: 
local_unnamed_addr
 Instruction variables' decls: 
igc-vertex-shader-lowering
 Violating Instruction: 
DW_TAG_call_site_parameter
\----------------------------------------------------------------------------------------------------------------------/
DW_TAG_GNU_template_parameter_pack
ADDRESSOF Operand decl... are those even allowed>
DW_TAG_APPLE_property
Immediate operand: 
 arcp
Operand type: 
20ocl_image2darraymsaa
 unable to print.
 nsw
unknown operand?
 exact
                               
array::at
More than 1 kernel attribute defined SLMSize
__builtin_IB_atomic_max_local_i32
Operand modifier for non-general and non-indirect operands must be MODIFIER_NONE.
 nand
Only arithmetic modifiers should be used with arithmetic instruction general or indirect operands.
Only logical modifiers should be used with logical instruction general or indirect operands.
 min
Boolean types for immediate (constant literals) operands are disallowed.
x86_thiscallcc
Variable V%d is not declaired in CISA symtab.
 syncscope("
Constant Immediate operands are not allowed to be used as destination operands.
DW_AT_discr_list
Not allowed to write to a read only variable
ComputeShaderLowering
CISA region has width of 0
__builtin_IB_atomic_max_local_f32
Invalid execution size
addrspace(
Horizontal Stride should not be 0 for a destination operand.
externally_initialized 
There's no reason, to set the vertical stride or width of a destination operand. They are ignored.
, section "
Horizontal Stride should not be REGION_NULL
thread_local 
Legal CISA region horizontal stride parameter values: {0, 1, 2, 4}.
thread_local(localexec) 
Legal CISA region width parameter values: {1, 2, 4, 8, 16}.
alias 
Execution size must be greater than width.
print-wia-check
Legal CISA region vertical stride parameter values: {0, 1, 2, 4, 8, 16, 32}.
__builtin_IB_atomic_and_local_i32
CISA operand region access out of 2 GRF boundary (within %d bytes): %d
 = module: (
CISA operand accesses more than 2 GRF due to mis-alignment: start byte offset = %d, end byte offset = %d
path: "
WARNING: CISA region and offset cause an out of bounds byte access: 
 = typeid: (name: "
An access should not exceed the declared allocation size: 
) ; guid = 
  The access fails the following check to determine correct bounds (see CISA manual section 5.1 Region-based Addressing):
guid: 
  (row_offset * GRF_SIZE + col_offset) + (((i * v_stride) + (j * h_stride)) * type_size) <= type_size * num_elements:
anyregcc
Debug wia-check analysis
__builtin_IB_atomic_or_local_i32
) + (((
, dsoLocal: 
) + (
, refs: (
)) * 
, funcFlags: (
) <= 
readNone: 
Violating Instruction: 
, returnDoesNotAlias: 
For 3 source operand instructions, the destination operand's horizontal stride must be 1.
amdgpu_vs
LRP instruction only supports sources and destination of type F.
WIAnalysis: 
For 3 source operand instructions, region must be either scalar or contiguous
, relbf: 
Aliased variable aliases to an invalid alias index. Variable count: %d. invalid index: %d
vFuncId: (
Raw operand should be GRF-aligned: Raw offset is %d
amdgpu_gs
A CISA raw operand's offset field must be within the allocated operand size. Raw offset is %d, allocated number of elements is %d
, wpdResolutions: (
Execution size for a flag copy mov instruction should be 1, as it is a scalar copy.
Gen Simplification
dst operand type for a flag copy mov instruction should be UD/UW/UB.
, alignLog2: 
dst operand type for a flag copy mov instruction should be greater than or equal to the size of the src0 operand's type size.
, sizeM1: 
saturation is not allowed for dst operands of a flag copy mov instruction
Args: 
predication is not allowed for dst operands of a flag copy mov instruction
__builtin_IB_atomic_inc_local_i32
Destination operand of CISA MOVS instruction only supports general and indirect operands.
, info: 
Source0 operand of CISA MOVS instruction only supports general, indirect, and immediate operands.
, byte: 
Destination operand of CISA SETP instruction only supports predicate operands.
Source0 operand of CISA SETP instruction only supports general, indirect, and immediate operands.
AS =
FMINMAX opext must be either 0x0 or 0x1 (min or max).
profile-sample-accurate
Destination operand of CISA SEL instruction only supports general and indirect operands.
probe-stack
Source0 operand of CISA SEL instruction only supports general, indirect, and immediate operands.
  unknown 
Source1 operand of CISA SEL instruction only supports general, indirect, and immediate operands.
__builtin_IB_atomic_dec_local_i32
Illegal Move Instruction Opcode: %d, %s.
cvtps2pd
Illegal Synchronization Instruction Opcode: %d, %s.
Illegal Scalar Control Flow Instruction Opcode: %d, %s.
abs.cond
CISA ISA_VME_IME instruction uses illegal stream mode.
max.cond
CISA ISA_VME_IME instruction uses illegal search ctrl.
ctpop
CISA ISA_VME_IME uses undeclared surface.
noalias
CISA ISA_VME_SIC uses undeclared surface.
CISA ISA_VME_FBR uses undeclared surface.
Objective-C Image Info Version
FBRMbMode operand of CISA VME_FBR instrution should be either a general, indirect, or immediate operand.
^arm\.neon\.vld([1234]|[234]lane)\.v[a-z0-9]*$
FBRSubMbShape operand of CISA VME_FBR instrution should be either a general, indirect, or immediate operand.
.p0i8
FBRSubPredMode operand of CISA VME_FBR instrution should be either a general, indirect, or immediate operand.
palignr
Number of message source GRFs must be between 1 and 15
clang.arc.retainAutoreleasedReturnValueMarker
Number of message destination GRFs must be between 0 and 16
loop_header_weight
desc operand of CISA RAW_SEND instrution should be either a general, indirect, or immediate operand.
full-set
Number of source0 GRFs must be between 1 and 32
       ; preds =
Number of source1 GRFs must be between 1 and 32
Use llvm.dbg.addr for all local variables
Number of message destination GRFs must be between 0 and 32
Missing size specification for pointer in datalayout string
Valid range for num_out parameter of URB write is [1,8]
Invalid pointer size of 0 bytes
Valid range for global_offset parameter of URB write is [0,2047]
Pointer preferred alignment must be a power of 2
Only execution size of 8 is supported for URB write
Invalid index size of 0 bytes
Invalid encoding for register file
ABI alignment specification must be >0 for non-aggregate types
Illegal Miscellaneous Flow Instruction Opcode: %d, %s.
DW_OP_breg2
Destination of CISA arithmetic instruction should be general or indirect operand.
Illegal destination modifier for CISA arithmetic instruction.
__builtin_IB_atomic_sub_global_i64
%s does not support saturation
Invalid ABI alignment, must be a 16bit integer
%s does not support saturation on integer types.
Invalid preferred alignment, must be a 16bit integer
Only mul/add/mad/div/inv/sqrtm/sqrt/divm are allowed to use double precision floating point operands.
Preferred alignment cannot be less than the ABI alignment
%s only supports single and half float type
Trailing separator in datalayout string
%s only supports single float type
number of bits must be a byte width multiple
%s only supports integer and single precision float types
Invalid address space, must be a 24-bit integer
%s only supports integer type
lzd only supports UD type
__builtin_IB_atomic_min_global_i64
%s only support D/UD dst type
DIFlagAppleBlock
sad2/sad2add only supports W/UW dst type.
DIFlagBlockByrefStruct
%s only supports single UD type
DIFlagExplicit
%s has illegal dst type
DIFlagPrototyped
unsupported source modifier for arithmetic instruction
DIFlagVector
source in arithmetic instruction must be general, indirect, or immediate
swifterror
Arithmetic instructions that use single or double precision or half float types must use the same type for all of their operannds: dst(%s) and src%d(%s).
immediate src%d has %d type, and it must have integer type
__builtin_IB_atomic_min_global_f64
sad2/sad2add only supports B/UB types for src0 and src1; W/UW for src2 (sad2add). src%d has invalid type.
DIFlagIntroducedVirtual
mul/div does not support Q/UQ types for src%d
DIFlagBitField
ieee div does not support types for src%d, other than F/DF
DIFlagTypePassByValue
ieee sqrt does not support types for src%d, other than F/DF
DIFlagTypePassByReference
%s src0 and src1 only supports single UD type
DIFlagTrivial
lrp only supports general/immediate operands
DIFlagIndirectVirtualBase
Common ISA Logic instrutions are not allowed to have address operands.
 BB:
Operand type of logic operantion for predicate operands should all be BOOL (ie if one operand is BOOL they all have to be BOOL).
ror/rol does not support i8/i64 types
pass-remarks
fbl/fbh/cbit does not support Q/UQ type.
pattern
Predicate can not be used in logic operantion for predicate operands.
Enable missed optimization remarks from passes whose name match the given regular expression
All operands of logic instructions must be of integral type! opnd %d has float type %d
CSK_SHA1
All operands of logic instructions must be of integral type! opnd %d has unknow type %d
' in -pass-remarks: 
CISA compare instruction destination only supports a predicate operand.
CISA compare instruction sources do not support address or predicate operands.
CISA address instruction destination only supports an address operand.
ignoring invalid debug info in 
CISA ADDR_ADD instruction sources do not support predicate operands.
!Missed
Can not take the address of a pre-defined variable
typeTestAssumeVCalls
Can not take the address of a pre-defined surface
!Failure
Data type of the second source of ADDR_ADD should be WORD or BYTE.
Pass
CISA SAMPLER ISA_SAMPLE_UNORM instruction only accepts non-zero channel masks.
Function
CISA SAMPLER ISA_SAMPLE_UNORM instruction uses undeclared sampler.
33IGIL_EnqueueKernelWithLocalParams9ocl_queueiPijPvjS1_S1_jS1_j9ndrange_ti12ocl_clkevent
Surface T0 (the SLM surface) is not allowed for the SAMPLER instruction ISA_SAMPLE_UNORM.
WIAnalysis
CISA SAMPLER instruction ISA_SAMPLE_UNORM uses undefined surface.
/AppleInternal/Library/BuildRoots/1db8ea6b-8e8d-11ee-9041-cedaeb4cabe2/Library/Caches/com.apple.xbs/Sources/GPUDriversIntel/igc/gfx-driver/Source/visa/iga/GEDLibrary/GED_internal/Source/ged/xcoder/ged_ins.cpp
u_offset operand of CISA SAMPLER ISA_SAMPLE_UNORM instrution should be either a general, indirect, or immediate operand.
        
v_offset operand of CISA SAMPLER ISA_SAMPLE_UNORM instrution should be either a general, indirect, or immediate operand.
u_delta operand of CISA SAMPLER ISA_SAMPLE_UNORM instrution should be either a general, indirect, or immediate operand.
PendUpdates:
v_delta operand of CISA SAMPLER ISA_SAMPLE_UNORM instrution should be either a general, indirect, or immediate operand.
mme1
CISA SAMPLER SAMPLE/LOAD instruction uses undeclared sampler.
Insert, 
Surface T0 (the SLM surface) is not allowed for the SAMPLER instruction ISA_SAMPLE/ISA_LOAD.
MSD0R_HWB
CISA SAMPLER instruction ISA_SAMPLE/ISA_LOAD uses undefined surface.
WIAnalysis provides work item dependency info
CISA SAMPLER ISA_SAMPLE/ISA_LOAD instruction only accepts non-zero channel masks.
MT0R_OWDB
Illegal SIMD mode used in ISA_SAMPLE/ISA_LOAD inst.
This is a generic pass for builtins custom-lowering.
Pixel Null Mask Enable only valid for SKL+
air.hull
CPS LOD Compensation Enable must be disabled unless SIMD mode is simd8* or simd16*
AirArgumentPropagation
CPS LOD Compensation Enable is only supported for sample, sample_b, sample_b_c, sample_c and LOD
28IGIL_EnqueueKernelWithEvents9ocl_queuejPvjS_S_jS_jiPi9ndrange_tiiPKU3AS412ocl_clkeventPU3AS412ocl_clkevent12ocl_clkevent
CISA SAMPLER AVS instruction only accepts non-zero channel masks.
__builtin_IB_get_group_id
CISA VA MINMAXFILTER instruction uses undeclared sampler.
__builtin_IB_get_local_id_z
Surface T0 (the SLM surface) is not allowed for the SAMPLER AVS instruction.
igc-wi-analysis
CISA VA instruction MINMAX uses undefined surface.
__builtin_IB_atomic_cmpxchg_global_f64
u_offset operand of CISA SAMPLER AVS instrution should be either a general, indirect, or immediate operand.
__builtin_IB_get_enqueued_local_size
v_offset operand of CISA SAMPLER AVS instrution should be either a general, indirect, or immediate operand.
__builtin_IB_get_global_size
u_delta operand of CISA SAMPLER AVS instrution should be either a general, indirect, or immediate operand.
stage_in_grid_size_z
v_delta operand of CISA SAMPLER AVS instrution should be either a general, indirect, or immediate operand.
use of undefined value '@
u2d operand of CISA SAMPLER AVS instrution should be either a general, indirect, or immediate operand.
stage_in_grid_origin_y
groupid operand of CISA SAMPLER AVS instrution should be either a general, indirect, or immediate operand.
Scratch Block Write
verticalBlockNumber operand of CISA SAMPLER AVS instrution should be either a general, indirect, or immediate operand.
consecu
cntrl for CISA SAMPLER AVS intruction should be a value 0-3 (8/16bit full/chrominance down sample).
__builtin_IB_atomic_add_local_i16
v2d operand of CISA SAMPLER AVS instrution should be either a general, indirect, or immediate operand.
global_offset_z
execMode for CISA SAMPLER AVS intruction should be a value 0-3 (16x4, 8x4, 16x8, or 4x4).
global_offset_y
iefbypass operand of CISA SAMPLER AVS instruction should be either a general, indirect, or immediate operand.
global_size_y
Surface T0 (the SLM surface) is not allowed for VA instructions.
enqueued_local_size_x
u_offset operand of CISA MINMAX instrution should be either a general, indirect, or immediate operand.
local_size_x
v_offset operand of CISA MINMAX instrution should be either a general, indirect, or immediate operand.
work_dim
CISA VA instruction MINMAXFILTER uses undefined surface.
p_conse
u_offset operand of CISA MINMAXFILTER instrution should be either a general, indirect, or immediate operand.
virtual_binding_table_vs
v_offset operand of CISA MINMAXFILTER instrution should be either a general, indirect, or immediate operand.
tess_instance_stride
CISA VA VA CENTROID/BOOLCENTROID instruction MINMAX uses undefined surface.
tess_factor_scale
u_offset operand of CISA VA CENTROID/BOOLCENTROID instrution should be either a general, indirect, or immediate operand.
v_offset operand of CISA VA CENTROID/BOOLCENTROID instrution should be either a general, indirect, or immediate operand.
MType
v_size operand of CISA VA CENTROID/BOOLCENTROID instrution should be either a general, indirect, or immediate operand.
constant unaligned oword block read
h_size operand of CISA VA CENTROID/BOOLCENTROID instrution should be either a general, indirect, or immediate operand.
LegacySimdMode
CISA VA CONVOLVE/ERODE/DILATE instruction uses undeclared sampler.
strided
CISA VA CONVOLVE/ERODE/DILATE instruction MINMAX uses undefined surface.
__builtin_IB_atomic_xchg_local_i16
u_offset operand of CISA CONVOLVE/ERODE/DILATE instrution should be either a general, indirect, or immediate operand.
v_offset operand of CISA CONVOLVE/ERODE/DILATE instrution should be either a general, indirect, or immediate operand.
Invalid VA sub-opcode: %d.
Surface T0 (the SLM surface) is not allowed for VA++ instructions.
CISA VA++ instruction LBP Correlation uses undefined surface.
air.get_unique_identifier_visible_function_table
u_offset operand of CISA LBP Correlation instrution should be either a general, indirect, or immediate operand.
air.get_unique_identifier_sampler
v_offset operand of CISA LBP Correlation instrution should be either a general, indirect, or immediate operand.
random 
Disparity operand of CISA LBP Correlation instrution should be either a general, indirect, or immediate operand.
enqueued_local_size_y
CISA VA++ instruction uses undeclared sampler.
air.atomic_fetch_max_explicit_texture
CISA VA++ instruction uses undefined surface.
air.atomic_fetch_min_explicit_texture
u_offset operand of CISA VA++ instrution should be either a general, indirect, or immediate operand.
air.atomic_store_explicit_texture
v_offset operand of CISA VA++ instrution should be either a general, indirect, or immediate operand.
air.
Invalid mode field for CISA VA++ instruction. Only 4x16, 1x16, and 1x1 (in the case of 1 pixel convolve) are supported.
bindless_image_cube_array_depth_t
CISA LBP Creation VA++ instruction uses undefined surface.
depthcube
u_offset operand of CISA LBP Creation VA++ instrution should be either a general, indirect, or immediate operand.
Special const prop for SLM
v_offset operand of CISA LBP Creation VA++ instrution should be either a general, indirect, or immediate operand.
__builtin_IB_atomic_min_local_i16
Invalid mode field for CISA LBP Creation VA++ instruction. Only 5x5, 3x3, or both modes are supported.
bindless_image2d_array_msaa_depth_t
Pixel direction v-mask left of CISA VA++ FloodFill instruction only supports general, indirect, and immediate operands.
depth2d_ms_array
Pixel direction v-mask right of CISA VA++ FloodFill instruction only supports general, indirect, and immediate operands.
texturecube
loop_count of Common ISA sample instrution is invalid type.
bindless_image2d_depth_t
u_offset of Common ISA Meida LD/ST instrution should not be address or predicate operand.
texture3d
v_offset of Common ISA Meida LD/ST instrution should not be address or predicate operand.
bindless_image2d_t
CISA VA++ instruction Correlation search operand verticalOrigin can only be of operand class general, indirect, or immediate.
igc-slmconstprop
CISA VA++ instruction Correlation search operand horizontalOrigin can only be of operand class general, indirect, or immediate.
__builtin_IB_atomic_min_local_f16
CISA VA++ instruction Correlation search operand xDirectionSize can only be of operand class general, indirect, or immediate.
texture2d_array
CISA VA++ instruction Correlation search operand yDirectionSize can only be of operand class general, indirect, or immediate.
bindless_image1d_t
CISA VA++ instruction Correlation search operand xDirectionSearchSize can only be of operand class general, indirect, or immediate.
texture1d_array
CISA VA++ instruction Correlation search operand yDirectionSearchSize can only be of operand class general, indirect, or immediate.
bindless_image1d_buffer_t
u_offset of Common ISA HDC INSTRUCTION should not be address or predicate operand.
accessTy
v_offset of Common ISA HDC instruction should not be address or predicate operand.
needBufferOffset
CISA VA++ instruction uses invalid output pixel size.
Custom Pass for Position-Only Shader
CISA VA++ instruction uses invalid mode.
__builtin_IB_atomic_max_global_u16
disparity of Common ISA HDC LBPCORRELATION should not be address or predicate operand.
CISA VA++ instruction uses undefined destination surface.
x_offset of Common ISA HDC instruction should not be address or predicate operand.
y_offset of Common ISA HDC instruction should not be address or predicate operand.
Invalid VA++ sub-opcode: %d.
Move static allocas to entry basic block of the function
Illegal Sampler Instruction Opcode: %d, %s.
Illegal SIMD CF Instruction Opcode: %d, %s.
igc-remove-nonposition-output
MEDIA_LD modifier must be 0-5 not %d
depthcube_array
MEDIA_ST modifier must be 0-3 not %d
cmc_load_and_compile
Surface T0 (the SLM surface) is not allowed for MEDIA_LD/MEDIA_ST
libigcmc.so
CISA dataport instruction uses an undeclared surface.
opencl.used.extensions
MEDIA_LD/MEDIA_ST plane must be in the range [0, 3]: %d
Advanced Memory Optimization
MEDIA_LD/MEDIA_ST block width must be in the range [1, 32]: %d
opencl.compiler.options
MEDIA_LD/MEDIA_ST block height must be in the range [1, 64]: %d
sqrt
MEDIA_LD only supports objects that fit into a single dataport transaction where block width <= 64 bytes and size <= 256 bytes. Block width: %d. Block height: %d
remove non-position output in vertex shader
MEDIA_ST only supports objects that fit into a single dataport transaction where block width <= 64 bytes and size <= 256 bytes. Block width: %d. Block height: %d
__builtin_IB_atomic_max_local_f16
x_offset of Common ISA Meida LD/ST instrution should not be address or predicate operand.
llvm.linker.options
y_offset of Common ISA Meida LD/ST instrution should not be address or predicate operand.
Invalid function comdat ID
OWORD_LD*/OWORD_ST size must be in the range [0, 3] (ie, OWord block size must be 1/2/4/8. OWord block size: %d
Invalid empty synchronization scope names block
Surface T0 (the SLM surface) is not allowed for OWORD_LD*/OWORD_ST
Invalid multiple synchronization scope names blocks
Offset of Common ISA OWORD LD/ST instrutions should not be address or predicate operands.
Invalid TYPE table: Only named structs can be forward referenced
Incorrect element size for Gather/Scatter CISA inst.
Invalid vector length
global_offset of Common ISA gather/scatter instrution should not be address or predicate operand.
debug_loc
At least one channel must be enabled for TYPED GATEHR4/SCATTER4
__builtin_IB_atomic_and_local_i16
Surface T0/T5 (the SLM surface) is not allowed for TYPED SCATTTER4/GATHER4
Invalid multiple blocks
CISA dataport TYPED SCATTTER4/GATHER4 instruction uses an undeclared surface.
Malformed global initializer set
Invalid DWORD ATOMIC sub op.
Explicit load/store type does not match pointee type of pointer operand
src0 in ISA_DWORD_ATOMIC inst must be V0 for INC/DEC/PREDEC.
Load/Store operand is not a pointer type
src1 in ISA_DWORD_ATOMIC inst must be V0 for non CMPXCHG operations.
Invalid gep with no operands
Illegal dataport Instruction Opcode: %d, %s.
Explicit gep operator type does not match pointee type of pointer operand
Raw Operand %s has incorrect type %s
vectorized
EXPLICIT
__builtin_IB_atomic_or_local_i16
LOCAL_SIZE
Fast-math-flags specified for call without floating-point scalar or vector return type
GROUP_COUNT
Explicit call type does not match pointee type of callee operand
LOCAL_ID
Fast math flags indicator set for call with no FMF
PSEUDO_INPUT
Invalid function metadata: outgoing forward refs
Explicit invoke type does not match pointee type of callee operand
Callee is not of pointer to function type
simd8
nomod
Inserted value type doesn't match aggregate type
modified
INSERTVAL: Invalid type
INSERTVAL: Invalid instruction with 0 indices
bottom
EXTRACTVAL: Invalid type
top_mod
EXTRACTVAL: Invalid instruction with 0 indices
bottom_mod
Invalid ID
reserved
Invalid function metadata: incoming forward references
simd16
__builtin_IB_atomic_inc_local_i16
Trying to materialize functions before seeing function blocks
Could not find function in stream
Incompatible epoch: Bitcode '
' Reader: 'LLVM 
Invalid bitcode signature
Invalid record
__builtin_IB_atomic_dec_local_i16
RGBA
reqd_work_group_size
0000
vector
16-full
_igc_bif_%s_%s
16-downsampled
8-full
Legalize calls to functions/subroutines and their signatures
8-downsampled
Types Legalization Pass
__builtin_IB_atomic_cmpxchg_global_f16
IndirectlyCalled
__builtin_IB_AllocLocalMemPool
unsafe-fp-math
M1_NM
Fix the usage of GetBufferPtr, no combination of GetBufferPtr and GetResourcePtr
M2_NM
encoder line %d: unsupported GED setter %s (%s)
M3_NM
.debug_abbrev_begin
M4_NM
7.0.0')
M5_NM
localMemStatelessWindowSize
M6_NM
localMemStatelessWindowStartAddr
M7_NM
deviceEnqueuePreferedWorkgroupMultiple
M8_NM
expected end of struct constant
sample_b
deviceEnqueueDefaultDeviceQueue
sample_l
ex_desc register not supported on this platform for this instruction
sample_c
vector
sample_d
spinlock
sample_b_c
BuiltinCallGraphAnalysis
sample_l_c
AddImplictArgs
sample4
igc.functions
resinfo
vector
sampleinfo
pixel_phase
sample+killpix
coarse_phase
sample4_c
info_string
sample4_po
init_spinlock_var.start
sample4_po_c
air.vertex
sample_d_c
moduleHash
sample_lz
vector
sample_c_lz
load_lz
offset
load_2dms_w
SubgroupIndependentForwardProgressRequired
load_mcs
func_begin
convolve
type
minmax
minmaxfilter
entry
erode
EightPatch
dilate
DualPatch
boolcentroid
(sat)
centroid
CONV_1D_HORIZONTAL
func_end
CONV_1D_VERTICAL
//.kernel_reordering_info_end
CONV_1PIXEL
FLOOD_FILL
LBP_CREATION
LBP_CORRELATION
CORRELATION_SEARCH
error: 
HDC_CONVOLVE_2D
basic_string
HDC_MIN_MAX_FILTER
<stdin>
HDC_ERODE
has reg descs
HDC_DILATE
unsupported format kind (for now)
HDC_LBP_CORRELATION
store as send must have a null dst
HDC_LBP_CREATION
a32c
HDC_CONVOLVE_1D_H
not a send
HDC_CONVOLVE_1D_V
packed_bool
HDC_CONVOLVE_1P
bool4
UNDEFINED
module_begin
CM_Y16_FORMAT
ga32
CM_Y8_FORMAT
packed_double
CM_5x5_mode
double4
CM_3x3_mode
double
CM_BOTH_mode
bool
CM_16_FULL
packed_ulong
CM_16_DOWN_SAMPLE
ulong4
CM_8_FULL
module_end
CM_8_DOWN_SAMPLE
packed_long4
CM_AVS_16x4
packed_long
CM_AVS_INVALID
long4
CM_AVS_16x8
long
CM_MMF_16x4
expected ')' in constantexpr
CM_MMF_INVALID
packed_uchar
CM_MMF_16x1
CM_MMF_1x1
line_table_start
CM_MINMAX_ENABLE
not a macro instruction
CM_MAX_ENABLE
register regioning restriction warning: ExecSize <= Src.W (partial row)
see Programmer's Reference Manual (Restriction 2.1)
CM_MIN_ENABLE
__ocl_dbg_gid
CM_ED_64x4
char
CM_ED_32x4
CM_ED_64x1
CM_ED_32x1
CM_CONV_16x4
section_line
CM_CONV_INVALID
__ocl_dbg_lid
CM_CONV_16x1
packed_short
CM_CONV_1x1
short4
short
ushort
xchg
packed_uint
cmpxchg
uint4
minsint
igc.input.ir
maxsint
long long
fcmpwr
packed_int
int4
packed_half4
packed_half
half4
Intel OpenCL 
ICLLP
Implicit Global Id Pass - Add parameters for debugging
gen11
packed_float
gen11lp
float4
float
half
local
global
debug_end
air.arg_type_align_size
none
air.arg_name
USAGE: Unrecognized option "
air.arg_type_name
air.primitive_acceleration_structure
unrecognized platform string: 
air.amplification_count
USAGE: GenX_IR <InputFilename.isa> {Option List}
air.threads_per_quadgroup
Converts a CISA file into Gen binary or assembly
air.thread_index_in_simdgroup
Options :
section_info
    -output
ushort3
- Emit target assembly code to a file.
air.threadgroup_position_in_grid
    -noschedule
air.threadgroups_per_grid
- Turn off code scheduling.
air.thread_position_in_threadgroup
    -nocompaction
invalid use of function-local name
- Turn off binary compaction.
air.base_vertex
    -dumpcommonisa
FDIV
- Emit CISA assembly.
section_abbrev
USAGE: GenX_IR <InputFilename.visaasm> {Option List}
__builtin_IB_get_parent_event
Converting a CISA assembly file into CISA binary file
air.indirect_buffer
    -outputCisaBinaryName <CISABinaryName>
wrapper
- name for the CISA binary file.
vISA_DumpPasses
igc-emulate-argument-buffers
vISA_DumpPassesLocation
air.write
vISA_DumpDot
air.read_write
vISA_DumpDotAll
dwarf_frame
VISA_FullIRVerify
__builtin_IB_get_object_id
vISA_dumpVISAOptions
igc-air-conversion
vISA_dumpVISAOptionsAll
AIR conversion to IGC
vISA_Debug
MaxNumOfPatchConstantSignatureEntries
vISA_DebugConsoleDump
thread_index_in_threadgroup_end
vISA_Gtpin
ConstSampler
vISA_EmitLocation
air.read
vISA_dumpRPE
debug_range
vISA_dumpLiveness
AirInlineBuiltins
vISA_EnableAlways
AirPropagateAssumptions
vISA_EnableSendFusion
AirFunctionBuilder
vISA_EnableWriteFusion
denorm_exp_loop
vISA_EnableAtomicFusion
InstrStatitic
vISA_LocalCopyProp
vISA_LocalFlagOpt
Integer Subtraction with Borrow
vISA_LocalMACopt
section_debug_loc
vISA_LocalCleanMessageHeader
Resolve device enqueue functions
vISA_LocalRenameRegister
air.get_thread_index_in_simdgroup
vISA_LocalDefHoist
air.get_quadgroup_index_in_threadgroup
vISA_FoldAddrImmed
air.get_simdgroups_per_threadgroup
vISA_enableCSEL
__builtin_IB_get_local_id_y
vISA_OptReport
__builtin_IB_is_normalized_coords
vISA_MergeScalar
__builtin_IB_get_snap_wa_reqd
vISA_EnableMACOpt
text_begin
vISA_EnableDCE
DeviceEnqueueFuncsAnalysis
vISA_DisableleHFOpt
air.sampler_states
vISA_enableUnsafeCP_DF
__air_sampler_state_static
vISA_EnableStructurizer
igc-air-function-attribute-update
vISA_StructurizeCF
CmpXchgFail
vISA_EnableScalarJmp
air.clear_barrier_compute_command
vISA_enableCleanupBindless
air.set_threadgroup_memory_length_compute_command
vISA_EnableSplitVariables
.debug_info_begin
vISA_ChangeMoveType
air.set_kernel_buffer_compute_command.p1i8
vISA_accSubstitution
air-fast-flag-propagation-resolve-pass
vISA_doAccSubAfterSchedule
Resolve fast flag markers to operand attributes
vISA_ifCvt
Total
vISA_LVN
SyncFC
vISA_numGeneralAcc
unable to decompact
vISA_reassociate
: unsupported opcode on this platform
vISA_unsafeMath
.debug_info_end
vISA_split4GRFVar
srgba8unorm
vISA_noSrc1Byte
rg16unorm
vISA_expandPlane
rg8snorm
vISA_FImmToHFImm
r16unorm
vISA_cacheSamplerHeader
r8snorm
vISA_forceSamplerHeader
primitive_acceleration_structure
vISA_noncoherentStateless
intersection_function_table
vISA_enablePreemption
.debug_abbrev_begin
VISA_EnableBarrierInstCounterBits
half4x4
vISA_forceFPMAD
half3x4
vISA_DisableMixMode
expected ChOff
vISA_DisableHFMath
half2x3
vISA_ForceMixMode
void
vISA_UseSends
air.dispatch_threads_per_threadgroup
vISA_doAlign1Ternary
air.dispatch_simdgroups_per_threadgroup
vISA_loadThreadPayload
.debug_abbrev_end
vISA_foldEOTtoPrevSend
_Z38get_kernel_sub_group_count_for_ndrange
vISA_hasRNEandDenorm
air.fragment
vISA_forceNoFP64bRegioning
input
vISA_alignBindlessSampler
air.external_initializations
vISA_RoundRobin
air.global_bindings
vISA_PrintRegUsage
LegalizeStructLoadStores
vISA_IPA
LegalizeResourcePointer
vISA_LocalRA
vISA_LocalRARoundRobin
__builtin_spirv_OpGetKernelNDrangeSubGroupCount
vISA_ForceSpills
MaxNumOfOutputSignatureEntries
vISA_NoIndirectForceSpills
MaxNumOfInputSignatureEntries
vISA_AbortOnSpill
greedy-live-range-reduction
vISA_VerifyRA
Trivial greedy live range reduction to reduce register pressure for special cases.
vISA_LocalBankConflictReduction
Workaround for FP16div optimization causing a overflow
vISA_FailSafeRA
Check unresolved builtin functions
vISA_FlagSpillCodeCleanup
$dup
vISA_GRFSpillCodeCleanup
indirect_command_buffer
vISA_SpillSpaceCompression
air-rw-texture-analysis
vISA_ConsiderLoopInfoInRA
Colects read-write textures indexes and removes texture fences
vISA_ReserveR0
igc-translate-air
vISA_SpiltLLR
va_arg requires operand with first class type
vISA_EnableGlobalScopeAnalysis
PreprocessMetadata
vISA_LocalDeclareSplitInGlobalRA
sqrtf
vISA_DisableSpillCoalescing
vISA_GlobalSendVarSplit
__builtin_spirv_OpGetKernelMaxNumSubgroups
vISA_NoRemat
Air Metadata Schema Wrapper
vISA_ForceRemat
AIR Metadata Parse
vISA_SpillMemOffset
air.interpolation_function
vISA_ReservedGRFNum
air.centroid
vISA_TotalGRFNum
air.flat
vISA_GRFNumToUse
air.perspective
vISA_RATrace
.ptrcast
vISA_FastSpill
CodeGen Context Wrapper
vISA_AbortOnSpillThreshold
error: backend compiler failed build.
vISA_enableBCR
37intel_work_group_vme_mb_multi_query_8PU3AS3jjjDv2_jDv2_iS2_14ocl_image2d_ro14ocl_image2d_ro11ocl_sampler
vISA_hierarchicaIPA
fatal flex scanner internal error--no action found
vISA_VerifyAugmentation
igc-translate-air-builtins
vISA_LocalScheduling
Custom Const-prop Pass
vISA_preRA_Schedule
Enqueue param is not set
vISA_preRA_ScheduleForce
.off
vISA_preRA_ScheduleCtrl
air.compile.native_double_disable
vISA_preRA_ScheduleRPThreshold
IGCIndirectICBPropagaion
vISA_DumpSchedule
atomic load cannot use Release ordering
vISA_DumpDagDot
logicalAndToBranch
vISA_EnableNoDD
igc-custom-safe-opt
vISA_DebugNoDD
vISA_NoDDLookBack
invalid argument
vISA_EnableNoSrcDep
.zext
vISA_EnableNoSrcDepScen1
IGC Custom Loop Opt
vISA_EnableNoSrcDepScen2
IGC loop canonicalization
vISA_DumpNoSrcDep
sqrtl
vISA_stopNoSrcDepSetAt
.concat
vISA_FuseTypedWrites
SampleOffsetX@
Print Function IR
__fvmlib_init0
switch
invoke
resume
catchret
vISA_SchedulerWindowSize
fadd
fmul
vISA_HWThreadNumberPerEU
urem
srem
vISA_ReadSuppressionDepth
store
cmpxchg
getelementptr
vISA_BXMLEncoder
fptrunc
fpext
__igcbuiltin_sp_div
vISA_outputToFile
bitcast
addrspacecast
vISA_PrintASMCount
lshr
ashr
extractelement
vISA_GeneratevISABInary
.u2f.inner.merge.hi
vISA_IsaAssembly
select values cannot have token type
vector select condition element type must be i1
select condition must be i1 or <n x i1>
unknown
vISA_GenIsaAsmList
vISA_IsaasmNamesFileUsed
true
vISA_StripComments
.promote
range
tbaa.struct
unpredictable
invariant.group
associated
vISA_GetvISABinaryName
DPEmufp16tofp32
vISA_OutputvISABinaryName
.size
disable debug output
print pass arguments to pass to 'opt'
Structure
print pass name before it is executed
vISA_DecodeDbg
Print IR before specified passes
print-after
Print IR before each pass
vISA_CISAbinary
When printing IR for print-[before|after]{-all} always print a module IR
filter-print-funcs
Only print IR for functions whose name match this for all print-[before|after][-all] options
vISA_NoVerifyvISA
Releasing pass '
Running pass '
basic block
vISA_isParseMode
Required Passes:
Error: Required pass not found! Possible causes:
- Pass misconfiguration (e.g.: missing macros)
vISA_GetFreeGRFInfo
Pass Arguments: 
 -- '
' is the last user of following pass instances.
vISA_clearHDCWritesBeforeEOT
 Freeing Pass '
' on BasicBlock '
DPEmuTrunc
vISA_addFFIDProlog
Required
Preserved
 Uninitialized Pass
vISA_clearAccBeforeEOT
Time each pass, printing elapsed time for each on exit
vISA_replaceIndirectCallWithJmpi
.sclr
vISA_GenerateDebugInfo
broadcastMessagePhaseV@
expected metadata symbol
 -export:
,DATA
vISA_InsertDummyCompactInst
RtLibUseGOT
unique id must be positive
.elt
Maximum optimization to perform
function (
basic block (
NOT 
vISA_easyIsaasm
Pass::print not implemented for pass: '
createMessagePhasesNoInit@
NumFunctions
unexpected token
vISA_dumpTimer
Struct tag nodes must have an odd number of operands!
Struct tag nodes have a string as their first operand
Incorrect field entry in struct type node!
Offsets must be increasing!
Member size entries must be constants!
vISA_Stepping
Immutability tag on struct tag metadata must be a constant
Immutability part of the struct tag metadata must be either 0 or 1
Access type node must be a valid scalar type
-dumpPassesAll
Did not see access type in access path!
Basic Block in function '
Functions may not have common linkage
-dot
Attribute after last parameter!
Attribute 'builtin' can only be applied to a callsite.
GEP_lane
scalar
-fullIRVerify
Function takes token but isn't an intrinsic
Functions returns a token but isn't an intrinsic
function declaration may not have a !dbg attachment
-dumpVisaOptionsAll
Entry block to function must not have predecessors!
blockaddress may not be used with the entry block!
function !dbg attachment must be a subprogram
-gtpin
Global is external, but doesn't have external or weak linkage!
huge alignment values are unsupported
Declaration may not be in a Comdat!
-dumpRPE
GlobalValue with non default visibility must be dso_local!
Global is referenced by parentless instruction!
assembled.vect
-enableSendFusion
More than one parameter has attribute returned!
Incompatible argument and return types for 'returned' attribute
Cannot have multiple 'swiftself' parameters!
-enableAtomicFusion
Attributes 'readnone and writeonly' are incompatible!
Attributes 'readonly and writeonly' are incompatible!
Attributes 'readnone and inaccessiblememonly' are incompatible!
-noflagopt
Attribute 'jumptable' requires 'unnamed_addr'
element size
Attributes 'inalloca and readonly' are incompatible!
-nomsgheaderopt
Attributes 'byval' and 'inalloca' do not support unsized types!
Attribute 'swifterror' only applies to parameters with pointer to pointer type!
.shl
-nodefhoist
 argument must refer to an integer parameter
swifterror value can only be loaded and stored from, or as a swifterror argument!
!prof annotations should have no less than 2 operands
-disablecsel
second operand should not be null
expected integer argument to function_entry_count
Expected no forward declarations!
-nomergescalar
invalid expression
missing variable
invalid tag
-dce
invalid scope
invalid base type
Fix FMF for APIs that are using legacy IR
-enableUnsafeCP_DF
class/union requires a filename
discriminator can only appear on variant part
invalid subroutine type ref
-noStructurize
invalid filename
invalid enum list
invalid retained type list
-noSplitVariables
invalid imported entity ref
invalid macro list
invalid subroutine type
-noAccSub
invalid retained nodes, expected DILocalVariable or DILabel
-accSubPostSchedule
IGC Type Legalizer
-noifcvt
invalid local scope
invalid scope ref
missing global variable name
-numGeneralAcc
label requires a valid scope
invalid scope for imported entity
invalid macinfo type
-unsafeMath
function-local metadata not in basic block
function-local metadata used in wrong function
PHINode should have one entry for each predecessor of its parent basic block!
-nosrc1byte
Operand is null
Found return instr that returns non-void in Function of void return type!
__builtin_spirv_BuiltInGlobalInvocationID
-noSamplerHeaderCache
Invalid use of metadata!
Instruction referencing instruction not embedded in a basic block!
Instruction operands must be first-class values!
-ncstateless
Referring to a basic block in another function!
Referring to an argument in another function!
Cannot take the address of an inline asm!
-enableBarrierInstCounterBits
invalid fpmath accuracy!
Ranges are only for loads, calls and invokes!
align applies only to pointer types
-disableHFMath
align metadata value must be a power of 2!
alignment is larger that implementation defined limit
Binary Instruction seen with illegal int type. Legalization support missing. Inst opcode:%d
-nosends
It should have at least one range!
The lower limit must be an integer!
Range must not be empty!
-noLoadPayload
dereferenceable, dereferenceable_or_null apply only to pointer types
dereferenceable, dereferenceable_or_null apply only to load instructions, use attributes for calls or invokes
dereferenceable, dereferenceable_or_null metadata value must be an i64!
-hasRNEandDenorm
Indirectbr destinations must all have pointer type!
The unwind destination does not have an exception handling instruction!
Called function is not the same type as the call!
-alignBS
speculatable attribute may not apply to call sites
inalloca argument for call has mismatched alloca
assumeCond
-printregusage
Function has token parameter but isn't an intrinsic
Return type cannot be token for indirect call!
Multiple funclet operand bundles
-nolocalra
Intrinsic functions should never be defined!
Intrinsic has incorrect return type!
Intrinsic was not defined with variable arguments!
-forcespills
is_zero_undef argument of bit counting intrinsics must be a constant int
invalid llvm.dbg.declare intrinsic call 1
alignment of arg 1 of memory intrinsic must be 0 or a power of 2
-abortonspill
constant length must be a multiple of the element size in the element-wise atomic memory intrinsic
-verifyra
igc-int-type-legalizer
-nolocalBCR
invalid arguments to llvm.prefetch
llvm.stackprotector parameter #2 must resolve to an alloca.
llvm.localescape used outside of entry block
-disableFlagSpillClean
idx argument of llvm.localrecover must be a constant int
gc.statepoint support for inline assembly unimplemented
gc.result result type does not match wrapped callee
-reserveR0
gc relocate should be linked to a statepoint
gc relocate is incorrectly tied to the statepoint
gc.relocate: statepoint base index out of bounds
-enableGlobalScopeAnalysis
gc.statepoint: mismatch in number of call arguments
gc.statepoint: number of transition arguments must be a constant integer
RectListOptimization
-globalSendVarSplit
eh.exceptionpointer argument must be a catchpad
masked_load: must return a vector
masked_load: pass through and data type must match
-forceremat
masked_store: vector mask must be same length as data
experimental_guard cannot be invoked
experimental_deoptimize cannot be invoked
-reservedGRFNum
invalid arguments for constrained FP intrinsic
invalid exception behavior argument
 intrinsic address/value
-GRFNumToUse
 intrinsic requires a !dbg attachment
mismatched subprogram between llvm.dbg.
struct_arg_offset
-abortonspillthreshold
gc.statepoint number of patchable bytes must be a constant integer
gc.statepoint number of patchable bytes must be positive
gc.statepoint number of arguments to underlying call must be positive
-oldIPA
gc.statepoint flags must be constant integer
unknown flag used in gc.statepoint flags argument
gc.statepoint number of transition arguments must be constant integer
-noschedule
illegal use of statepoint token
gc.result or gc.relocate are the only value uses of a gc.statepoint
ResumeInst needs to be in a function with a personality.
-presched
CatchReturnInst needs to be provided a CatchPad
CatchSwitchInst needs to be in a function with a personality.
funcElse
-presched-rp
Block containing LandingPadInst must be jumped to only by the unwind edge of an invoke.
Block containg CatchPadInst must be jumped to only by its catchswitch.
A cleanupret must exit its cleanup
-dumpDagDot
Both operands to a binary operator are not of the same type!
Integer arithmetic operators only work with integral types!
Floating-point arithmetic operators only work with floating-point types!
-debug-noDD
Shift return type must be same as operands!
Allocation instruction pointer not in the stack address space!
Load operand must be a pointer.
-enable-noSrcDep
Atomic load must specify explicit alignment
-disable-noSrcDep-scen1
img_access_int_coords
-disable-noSrcDep-scen2
Atomic store must specify explicit alignment
atomic store operand must have integer, pointer, or floating point type!
GEP into unsized type!
-stop-noSrcDep-at
Vector GEP result width doesn't match operand's
Invalid GEP index vector width
fence instructions may only have acquire, release, acq_rel, or seq_cst ordering.
-nodpsendreorder
cmpxchg operand must have integer or pointer type
Expected value type does not match pointer operand type!
First atomicrmw operand must be a pointer.
-dontUseMultiThreadedLatencies
Trunc only operates on integer
Trunc only produces integer
Simplify return types and bodies of dead visible functions
-unifiedSendCycle
SExt only operates on integer
SExt only produces an integer
FPToUI source and dest must both be vector or scalar
-noAtomicSend
FPToSI source and dest must both be vector or scalar
FPToSI source must be FP or FP vector
FPToSI source and dest vector length mismatch
-nocompaction
SIToFP source and dest must both be vector or scalar
SIToFP source must be integer or integer vector
FPTrunc only operates on FP
-IGAEncoder
FPExt only operates on FP
FPExt only produces an FP
arg_desc
-symbolreg
IntToPtr source must be an integral
IntToPtr result must be a pointer
AddrSpaceCast source must be a pointer
-binary
CleanupPadInst needs to be in a function with a personality.
CleanupPadInst not the first non-PHI instruction in the block.
FuncletPadInst must not be nested within itself
-dumpisavarnames
CatchPadInst needs to be directly nested in a CatchSwitchInst.
CatchPadInst not the first non-PHI instruction in the block.
Invalid predicate in ICmp instruction!
-stripcomments
PHI nodes not grouped at top of basic block!
PHI nodes cannot have token type!
image1d
-numGenBinariesWillBePatched
cannot guarantee tail call due to mismatched calling conv
cannot guarantee tail call due to mismatched ABI impacting function attributes
musttail call result must be returned
-outputCisaBinaryName
Invalid extractelement operands!
Invalid insertelement operands!
Invalid ExtractValueInst operands!
-asmNameUser
LandingPadInst not the first non-PHI instruction in the block.
Catch operand does not have pointer type!
all indices passed to llvm.localrecover must be less than the number of arguments passed ot llvm.localescape in the parent function
-encoderStatisticsFile
'common' global may not be in a Comdat!
-CISAbinary
thread_group_size
-noverifyCISA
Aliasee cannot be NULL!
Alias and aliasee types should match!
Aliases cannot form a cycle
-rerapostschedule
comdat global value has private linkage
invalid requirement on flag, flag is not present in module
incorrect number of operands in module flag
-setA0toTdrForSendc
invalid value for 'require' module flag (expected metadata pair)
invalid value for 'require' module flag (first value operand should be a string)
wchar_size metadata requires constant integer argument
-setFFID
igc-translate-acl-printf
-clearAccBeforeEOT
image2d_msaa
<MCOperand 
image2d_msaa_depth
0123456789ABCDEFGHIJKLMNOPQRSTUVWXYZ
APInt(
-insertDummyCompactInst
0x%08x / 0x%08x = %.2f%%
%Y-%m-%d %H:%M:%S
may only occur zero or one times!
must occur exactly one time!
>...
' is invalid value for boolean argument! Try 0 or 1
' value invalid for integer argument!
' value invalid for uint argument!
 -   
= *unknown option value*
-dumpPayload
*no default*
= *cannot print option value*
Display list of available options (-help-list-hidden for more)
-timestats
help-hidden
Display all available options
Print non-default options after command line parsing
: CommandLine Error: Option '
' registered more than once!
error - this positional option will never be matched, because it does not Require a value, and a cl::ConsumeAfter option is active!
-platform
'.  Try: '
 -help'
image2d_array
USAGE: -numGeneralAcc <accNum>
: See: 
 -help
 positional arguments: See: 
USAGE: -reservedGRFNum <regNum>
does not allow a value! '
' specified.
' value invalid for floating point argument!
USAGE: -GRFNumToUse <regNum>
 [options]
SUBCOMMAND '
SUBCOMMANDS:
USAGE: -presched-ctrl <ctrl>
LLVM (http://llvm.org/):
LLVM
intel_reqd_sub_group_size
USAGE: -noDD-lookback <NUM>
Counters and values:
.rodata.cst32
 does not have an = in it
 is not a number
 is not a registered counter
 does not end with -skip or -count
.debug_info
Execute graph viewer in the background. Creates tmp file litter.
Error: 
Writing '
Trying 'open' program... 
USAGE: -asmNameUser <FILE>
(trunc 
ldmsptr16bit@
Accelerate framework
USAGE: -encoderStatisticsFile <reloc file>
llvm.genx.GenISA.DCL.DSCntrlPtInputVec
sampler_t
USAGE: File Name with isaasm paths. 
??2@YAPAXIABUnothrow_t@std@@@Z
??3@YAXPAXABUnothrow_t@std@@@Z
USAGE: -setFFID <ffid>
sampleDptr@
LLT_invalid
USAGE: -hashmovs1 hi32 lo32
Seed for the random number generator
.debug_info.dwo
Allocation failed
igc-purgeMetaDataUtils-import
USAGE: missing platform string. 
UNDEFINED 
xscale
arm64
aarch64
unordered_map::at: key not found
armv2a
jit_time.txt
armv4
timers.
HW_Conformity
armv6kz
Total_RA
GRF_Local_RA
__cospif
GRF_Global_RA
__memmove_chk
llvm.genx.GenISA.GetPixelMask
,#execinstr
  Graph Coloring
__sinhl_finite
asinl
atan2l
atanh
llvm.genx.GenISA.GlobalDataAccess
llvm.genx.GenISA.GridOriginLocation
llvm.genx.GenISA.GroupIdLocation
__powl_finite
Scheduling
 Inst:
__sqrtl_finite
Compaction
,unique,
Subsection number out of range
__stpcpy_chk
VB_Append_Instruction
__strncpy_chk
bcopy
llvm.genx.GenISA.GradientXfine
VB_Create_Operand
unsupported type 0x
VB_IR_Construction
Enable -time-passes memory tracking (this may be slow)
info-output-file
 for appending!
%9lld  
  Total Execution Time: %5.4f seconds (%5.4f wall clock)
Inliner for always_inline functions
   ---Wall Time---
  ---Mem---
16ocl_image1darray
simdMediaBlockRead@
aarch64_be
mips64el
powerpc64
i386
x86_64
amdil64
Stop inferring nounwind attribute during function-attrs pass
functionattrs
renderscript64
ananas
darwin
Deduce function attributes
linux
openbsd
Dead Global Elimination
minix
rtems
StringRef llvm::getTypeName() [DesiredTypeName = llvm::InnerAnalysisManagerProxy<FunctionAnalysisManager, Module>]
Enable stress test of coldcc by adding calling conv to all internal functions.
gnueabihf
gnueabi
Resolve aggregate arguments
Maximum block frequency, expressed as a percentage of caller's entry frequency, for a call site to be considered cold for enablingcoldcc
llvm.genx.GenISA.GradientY
globaldce
gnuabi64
cbrtf
logbl
logl
thread_local_zerofill
cstring:"
std::string:"
formatv:"
char:"
decUL:"
storerawvector_indexed@
pure_instructions
invalid number
no_toc
ResolveAggregateArguments
alnum
alpha
ABCDEFGHIJKLMNOPQRSTUVWXYZabcdefghijklmnopqrstuvwxyz
cntrl
ABCDEFGHIJKLMNOPQRSTUVWXYZabcdefghijklmnopqrstuvwxyz0123456789!"#$%&'()*+,-./:;<=>?@[\]^_`{|}~
next
ABCDEFGHIJKLMNOPQRSTUVWXYZabcdefghijklmnopqrstuvwxyz0123456789!"#$%&'()*+,-./:;<=>?@[\]^_`{|}~ 
punct
Global Variable Optimizer
0123456789ABCDEFabcdef
ipconstprop
alert
inline
vertical-tab
inliner-function-import-stats
basic statistics
AlignmentAnalysisPass
printing of statistics for each inlined function
number-sign
Cannot find option named '
apostrophe
left-parenthesis
asterisk
NoDefinition
period
full-stop
zero
 will not be inlined into 
five
14ocl_image2d
NotInlined
equals-sign
left-square-bracket
Inlined
circumflex
circumflex-accent
low-line
NeverInline
FunctionGroup analysis
 not inlined into 
 because it should never be inlined (cost=never)
llvm_regexec() failed to match
REG_BADPAT
invalid regular expression
REG_ECOLLATE
invalid character class
 because too costly to inline (cost=
invalid backreference number
REG_EBRACK
parentheses not balanced
Not inlining. Cost of inlining 
invalid repetition count(s)
REG_ERANGE
REG_ESPACE
 in other contexts
empty (sub)expression
REG_ASSERT
invalid argument to regex routine
Parse IR
__builtin_IB_atomic_xchg_global_i32
nehalem
sandybridge
amdfam10
bdver3
bdver4
haswell
Number of metadatas above which we emit an index to enable lazy-loading
cannonlake
core2
Write relative block frequency to function summary 
silvermont
Unexpected anonymous function when writing summary
pentium2
pentium3
__builtin_IB_atomic_min_global_i32
write-bitcode
athlon-xp
Bitcode Writer
__builtin_IB_atomic_min_global_u32
!DISubrange(
-%%%%%%
TMPDIR
Map Name: 
vaConvolveGRF_16x4@
checksumkind: 
Error waiting for child process
 (core dumped)
" doesn't exist!
/dev/null
 Uses(
Enable fmax/fmin + 0.0f flag
llvm-symbolizer
!DITemplateValueParameter(
DW_TAG_array_type
DW_TAG_entry_point
DW_TAG_enumeration_type
DW_TAG_label
constant bigger than 64 bits detected!
DW_TAG_reference_type
DW_TAG_compile_unit
DW_TAG_subroutine_type
end of file in COMDAT variable name
DW_TAG_variant
DW_TAG_common_block
DW_TAG_inheritance
end of file in string constant
DW_TAG_subrange_type
DW_TAG_with_stmt
DW_TAG_catch_block
end of file in global variable name
DW_TAG_file_type
DW_TAG_friend
DW_TAG_namelist_item
declare
DW_TAG_thrown_type
DW_TAG_try_block
DW_TAG_volatile_type
unnamed_addr
DW_TAG_namespace
DW_TAG_imported_module
__builtin_IB_atomic_max_global_i32
zeroinitializer
DW_TAG_rvalue_reference_type
DW_TAG_template_alias
DW_TAG_dynamic_type
unwind
DW_TAG_skeleton_unit
DW_TAG_immutable_type
DW_TAG_format_label
monotonic
DW_TAG_GNU_formal_parameter_pack
DW_TAG_GNU_call_site
DW_TAG_BORLAND_property
release
DW_TAG_BORLAND_Delphi_variant
DW_AT_sibling
__builtin_IB_atomic_max_global_f32
seq_cst
DW_AT_stmt_list
DW_AT_low_pc
DW_AT_discr
alignstack
DW_AT_string_length
DW_AT_common_reference
DW_AT_const_value
coldcc
DW_AT_lower_bound
DW_AT_producer
DW_AT_start_scope
x86_fastcallcc
DW_AT_accessibility
DW_AT_address_class
25ocl_image2d_array_msaa
x86_vectorcallcc
DW_AT_decl_file
DW_AT_decl_line
DW_AT_encoding
arm_aapcscc
DW_AT_identifier_case
DW_AT_macro_info
DW_AT_priority
msp430_intrcc
DW_AT_use_location
DW_AT_variable_parameter
DW_AT_allocated
ptx_device
DW_AT_entry_pc
DW_AT_use_UTF8
__builtin_IB_atomic_and_global_i32
spir_func
DW_AT_description
DW_AT_binary_scale
DW_AT_decimal_sign
x86_64_sysvcc
DW_AT_threads_scaled
DW_AT_explicit
DW_AT_endianity
x86_regcallcc
DW_AT_main_subprogram
DW_AT_data_bit_offset
DW_AT_linkage_name
swiftcc
DW_AT_str_offsets_base
DW_AT_addr_base
25ocl_image2d_msaa_depth
preserve_mostcc
DW_AT_call_all_calls
DW_AT_call_all_source_calls
DW_AT_call_value
ghccc
DW_AT_call_tail_call
DW_AT_call_target
DW_AT_call_data_location
hhvmcc
DW_AT_deleted
DW_AT_defaulted
DW_AT_MIPS_tail_loop_begin
cxx_fast_tlscc
DW_AT_MIPS_linkage_name
DW_AT_MIPS_stride
__builtin_IB_atomic_xor_global_i32
amdgpu_ls
DW_AT_MIPS_allocatable_dopetype
DW_AT_MIPS_assumed_shape_dopetype
DW_AT_src_info
amdgpu_es
DW_AT_body_end
DW_AT_GNU_vector
DW_AT_GNU_odr_signature
amdgpu_ps
DW_AT_GNU_dwo_id
DW_AT_GNU_ranges_base
DW_AT_GNU_pubtypes
amdgpu_kernel
DW_AT_BORLAND_property_implements
31ocl_image2d_array_msaa_depth
attributes
DW_AT_BORLAND_Delphi_destructor
DW_AT_BORLAND_Delphi_anonymous_method
DW_AT_BORLAND_Delphi_return
byval
DW_AT_LLVM_config_macros
DW_AT_LLVM_isysroot
DW_AT_APPLE_flags
cold
DW_AT_APPLE_omit_frame_ptr
DW_AT_APPLE_property_name
DW_AT_APPLE_property_attribute
dereferenceable
DW_OP_deref
DW_OP_const1u
__builtin_IB_atomic_dec_global_i32
inaccessiblememonly
DW_OP_const8s
DW_OP_constu
DW_OP_drop
inlinehint
DW_OP_rot
DW_OP_xderef
DW_OP_and
jumptable
DW_OP_neg
DW_OP_not
DW_OP_plus_uconst
naked
DW_OP_xor
DW_OP_bra
20ocl_image2d_depth
nobuiltin
DW_OP_skip
DW_OP_lit0
DW_OP_lit3
noduplicate
DW_OP_lit7
DW_OP_lit8
DW_OP_lit10
noinline
DW_OP_lit15
DW_OP_lit16
DW_OP_lit19
nonlazybind
DW_OP_lit23
DW_OP_lit24
__builtin_IB_atomic_cmpxchg_local_i32
noredzone
DW_OP_lit31
DW_OP_reg0
DW_OP_reg3
nocf_check
DW_OP_reg7
DW_OP_reg8
DW_OP_reg10
optnone
DW_OP_reg15
DW_OP_reg16
DW_OP_reg19
readnone
DW_OP_reg23
readonly
26ocl_image2d_array_depth
returned
DW_OP_reg31
DW_OP_breg0
DW_OP_breg3
signext
DW_OP_breg7
DW_OP_breg8
DW_OP_breg10
sret
DW_OP_breg15
DW_OP_breg16
DW_OP_breg19
sspreq
DW_OP_breg23
DW_OP_breg24
__builtin_IB_atomic_xchg_global_i64
strictfp
DW_OP_breg31
DW_OP_regx
DW_OP_piece
shadowcallstack
DW_OP_push_object_address
DW_OP_call2
DW_OP_call_ref
sanitize_hwaddress
DW_OP_stack_value
DW_OP_implicit_pointer
DW_OP_entry_value
sanitize_memory
DW_OP_xderef_type
DW_OP_convert
24IGIL_EnqueueKernelShared9ocl_queuejPvjS0_S0_jS0_jiPi9ndrange_tii12ocl_clkevent
swiftself
DW_ATE_boolean
DW_ATE_complex_float
DW_ATE_signed_char
writeonly
DW_ATE_packed_decimal
DW_ATE_numeric_string
DW_ATE_signed_fixed
opaque
DW_ATE_ASCII
DW_VIRTUALITY_none
DW_LANG_C89
largest
DW_LANG_Cobol74
DW_LANG_Cobol85
__builtin_IB_atomic_max_global_i64
samesize
DW_LANG_Ada95
DW_LANG_Fortran95
DW_LANG_ObjC_plus_plus
umax
DW_LANG_OpenCL
DW_LANG_Go
DW_LANG_Haskell
DW_LANG_C11
DW_LANG_Swift
DW_LANG_C_plus_plus_14
flags
DW_LANG_RenderScript
18IGIL_EnqueueKernel9ocl_queuejPvjS0_S0_jS0_j9ndrange_ti12ocl_clkevent
llvm.genx.GenISA.OutputTessControlPoint
log10l
lstat64
variable
 = type 
REG_ESUBREG
memccpy
typeCheckedLoadVCalls
mempcpy
DW_AT_call_pc
DW_OP_addr
REG_BADBR
typeCheckedLoadConstVCalls
Advanced Code Motion
unsat
byteArray
R_WEBASSEMBLY_TABLE_INDEX_I32
R_WEBASSEMBLY_MEMORY_ADDR_SLEB
R_WEBASSEMBLY_MEMORY_ADDR_I32
__builtin_IB_atomic_xor_global_i64
String
Use full module build paths in the profile counter names for static functions.
File
MapRawBytes
SurfaceUsage
0.41 (982f76f)
uniqueRetVal
mme0
mme2
mme3
mme6
mme7
MSD0W_HWB
fp128
MT0R_DWS
MT0R_BS
MT0W_OWB
x86_mmx
MT1R_US
MT1A_UI
MT1R_TS
zext
MT1W_MB
MT1A_TC
__builtin_IB_atomic_cmpxchg_global_i64
store
MT1R_A64_B
MT1W_A64_B
MT2R_US
Can't read textual IR with a Context that discards named Values
MT2W_US
MT2W_A64_US
MT2W_BS
use of undefined type '%
MT_SC_OWUB
MT_SC_MB
MT_RTR
use of undefined comdat '$
MT_MEMFENCE
MTW_MB
28IGIL_EnqueueKernelWithEvents9ocl_queuejPvjS0_S0_jS0_jiPi9ndrange_tiiPU3AS4K12ocl_clkeventPU3AS4S3_S3_
use of undefined metadata '!
MT1A_A64_UF
MT1A_A64_UF4x2
OWord Block Read
use of undefined type id summary '^
Byte Scattered Read
Memory Fence
OWord Dual Block Write
expected 'module asm'
Untyped Atomic Integer Operation
Untyped Atomic Integer Operation SIMD4x2
Typed Atomic Integer Operation
expected '=' after target triple
Typed Atomic Counter Operation
Typed Atomic Counter Operation SIMD4x2
__builtin_IB_atomic_sub_global_i16
expected '=' after source_filename
A64 Block Write
A64 Untyped Surface Write
Unaligned Oword Block Read Constant Cache
expected ']' at end of list
Media Block Read Sampler Cache
Read Surface Info
Render Target Read
expected 'type' after '='
A64 Untyped Atomic Float Operation
A64 Untyped Atomic Float Operation SIMD4x2
HSOutputControlPointCount
expected 'type' after name
beforeRemoveUnreachableBlocks
bits set in undefined field
const_load_block
unaligned_const_load_block
7041
7043
7084
expected '=' here
7028
aligned oword block read
7030
expected comdat type
20862
7029
oword dual block write decode not supported
redefinition of comdat '$
7068
dword gathering read
__builtin_IB_atomic_min_global_i16
Expected '{' here
sync_
synchronized 
global_fence
unexpected type in metadata definition
L1Flush
Flush L3
Expected 'gv', 'module', or 'typeid' at the start of summary entry
 r/w data
expected '(' at start of summary entry
7049
hword scratch block read
11read_imagef14ocl_image2d_ro11ocl_samplerDv2_fS1_S1
unexpected summary kind
7031
unsupported dc0 op
7089
symbol with local linkage must have default visibility
7070
7073
19316
invalid aliasee
a64 qword gathering read
a64 qword scattering write
7074
explicit pointee type doesn't match operand's pointee type
7038
HWord aligned unsupported on this platform
__builtin_IB_atomic_min_local_u16
redefinition of global '@
 read
 write
 unaligned
invalid type for global variable
 oword
 block
7126
expected global section string
a64 untyped atomic int32
DataWidth
untyped
expected attribute group id
7137
untyped atomic int32
11read_imagei14ocl_image2d_ro11ocl_samplerDv2_fS1_S1_
expected end of attribute group
mlen == 0 on write
 with vertical line stride 
, and 
unterminated attribute group
7087
7090
atomic 32-bit counter
invalid use of attribute on a function
atomic 32-bit integer
7113
ChannelMaskEnable
global variable reference must have pointer type
urb dword 
masked 
__builtin_IB_atomic_max_global_f16
' defined with type '
unsupported URB op
URBOpcode
monitor
expected integer
wait for event
unsupported GTWY op
expected localdynamic, initialexec or localexec
FP32
FP16
half-precision
expected '(' in address space
 SIMD16
expected ')' in address space
12read_imageui14ocl_image2d_ro11ocl_samplerDv2_fS1_S1_
invalid use of function-only attribute
 SIMD8
.???
Subop
invalid use of attribute on return type
PerSamplePS
 with Per-Sample Pixel PS outputs enable
LastRenderTargetSelect
expected metadata after comma
SLOTGRP_HI
 slot group high
SIMD[2]
huge alignments are not supported yet
simd32
invalid SIMD mode
__builtin_IB_atomic_and_global_i16
expected ')'
sample override LOD
expected metadata or 'align'
sample compare+override LOD
sample_ld
sample_gather4
'allocsize' indices can't refer to the same parameter
sample res info
sample_info
sample_gather4_c
Expected synchronization scope name
sample_gather4_po_c
sample gather4 pixel offset+compare
11read_imagef20ocl_image2d_depth_ro11ocl_samplerDv2_fS1_S1_
Expected ordering on atomic instruction
sample compare+with lod forced to 0
sample_ld_lz
sample ld2 multi-sample wide
expected ',' as start of index list
sample load multi-sample
sample_ld2ds
sample_
expected '>' at end of packed struct
sample deinterlace
sample_unorm_media
sample unorm+killpix for media
basic block pointers are invalid
sampler cache flush
SamplerMessageType
__builtin_IB_atomic_xor_global_i16
pointer to this type is invalid
unsupported TS op
unsupported sfid
1L (1 Oword accessed in low half of GRF)
expected '*' in address space
8 OWords
DataElements:MDC_DB_OW
this message requires a header (and it's absent)
expected ',' in argument list
SimdMode:MDC_SM2
field should be 
included
non-musttail call
scratch
musttail call in non-varargs function
11read_imagef20ocl_image2d_array_ro11ocl_samplerDv4_fDv2_fS2_
expected ')' at end of argument list
DE1 (1 data element per addr.)
DE2 (2 data elements per addr.)
surface 
expected ',' in input list
 (coherent stateless)
 A64
 (incoherent stateless)
operand bundle set must not be empty
untyped_load
untyped_store
 enabled
invalid type for function argument
this message forbids a header (and it's included)
DataElements:MDC_A64_DS
__builtin_IB_atomic_dec_global_i16
argument name invalid in function type
AtomicOp:MDC_AOP
ReturnDataControl
_ret
redefinition of type
atomic_and
logical AND
logical OR
expected '>' in packed struct
integer increment
atomic_idec
integer pre-decrement (returns pre-decrement value)
expected '}' at end of struct
integer subtract
atomic_irsub
11read_imagei20ocl_image2d_array_ro11ocl_samplerDv4_fDv2_fS2_
expected 'x' after element count
unsigned-integer max
atomic_umin
AtomicIntegerOp
zero element vector is illegal
 (high slot group)
_sgh
SG4x2
invalid vector element type
SlotGroup:MDC_SG2
GlobalUrbOffset
per-slot offset in payload
use of undefined value '%
oword unaligned
oword aligned
__builtin_IB_atomic_cmpxchg_local_i16
' is not a basic block
igc-wa-fminmax
invalid use of a non-first-class type
failed to allocate memory for kernel binary
GED unable to compact instruction
AccessMode
ExecSize
PredCtrl
instruction forward referenced with type '
FlagSubRegNum
AccWrCtrl
DstRegFile
expected value token
ExecutionDataType
BranchCtrl
Src1RegFile
expected end of packed struct
Src0DataType
ExDescRegFile
ExDescAddrSubRegNum
constant vector must not be empty
DstAddrMode
dst has inconvertible region for Align16 encoding
Align1 dst math macro unsupported on this platform.
vector element #
dst: unsupported destination operand kind/addrMode (malformed IR)
Src0AddrMode
Src0SubRegNum
expected end of array constant
align16 ternary dst must be to GRF
init_spinlock_var.end
array element #
DstSubRegNum
DebugCtrl
jip label invalid
expected comma in inline asm expression
GED_EncodeIns failed: %s
Src1VertStride
null pointer
expected '(' in block address expression
invalid interpreter
other error
src%d: unsupported region for translation to align16 encoding
expected ')' in block address expression
Src1SubRegNum
Src1MathMacroExt
11read_imagef26ocl_image2d_array_depth_ro11ocl_samplerDv4_fDv2_fS2_
cannot take blockaddress inside a declaration
Src1Width
Src1HorzStride
Src0ChanSel
cannot take address of numeric label after the function is defined
SrcDataType
src%d: unsupported region for Align16 encoding
src%d: mixed types require :f and :hf (or vice versa)
expected 'to' in constantexpr cast
Src2ChanSel
Src2RegNum
src%d: align1 ternary is not supported on this platform.
invalid cast opcode for cast from '
igc-layout
' to '
expected '(' in extractvalue constantexpr
Break constant expressions into instruction sequences
 wr:
h:INVALID
 from scratch offset 0x
 msc:
global memory
expected '(' in insertvalue constantexpr
dst region is not binary normal
expected ')' in insertvalue constantexpr
<Region::INVALID>
InstOpt
 */ 
invalid indices for insertvalue
 from #
insertvalue operand and field disagree in type: '
Layout
' instead of '
EH, 
src0 must be GRF
dst must be GRF for load
dst must be null for store
error decoding SIMD size from descriptor
descriptor SIMD size mismatches instruction ExecSize
src0 is null (doesn't fit operand mapping)
compare operands must have the same type
a32o
a64o
expected '(' in binary constantexpr
xsc8
xga32
xsc64
sc32
operands of constexpr must have same type
xubl128
bl128
cubl128
nsw only applies to integer operations
constexpr requires fp operands
DE(0x
BTS_SLM_A32
expected comma in logical constantexpr
OWs(0x
constexpr requires integer or integer vector operands
CMask
rgba
expected comma after getelementptr's type
base of getelementptr must be a pointer
12read_imageui14ocl_image3d_ro11ocl_samplerDv4_fS1_S1_
getelementptr index must be an integer
getelementptr vector index has a wrong number of elements
 targets
 before kernel start
packed_char4
invalid operand type combination for instruction
src type is not binary normal form
register regioning restriction warning: ExecSize == Src.W && Src.H != 0 && Src.V != Src.W * Src.H (vertical misalignment)
see Programmer's Reference Manual (Restriction 2.2)
register regioning restriction warning: SIMD1 requires horizontal stride of 0 (scalar region access)
see Programmer's Reference Manual (Restriction 2.4)
vector
expected three operands to shufflevector
General
Null
Accumulator
Flag Register
invalid extractelement operands
Message Control
invalid insertelement operands
Notification Register
Thread Dependency Register
expected comdat variable
Flow Control
__ocl_dbg_grid
comdat cannot be unnamed
addc
Addition with Carry
Logic And
expected metadata type
Perform component-wise arithmetic right shift of the bits in src0 by the shift count indicated in src1, storing the results in dst. If src0 has a signed type, insert copies of src0's sign bit in the number of MSBs indicated by the shift count. Otherwise insert 0 bits.
[Pre-DevBDW]: The shift count is taken from the low five bits of src1, regardless of the src1 type and treated as an unsigned integer in the range 0 to 31.
[DevBDW+]: In QWord mode, the shift count is taken from the low six bits of src1 regardless of the src1 type and treated as an unsigned integer in the range 0 to 63. Otherwise the shift count is taken from the low five bits of src1 regardless of the src1 type and treated as an unsigned integer in the range 0 to 31. The operation uses QWord mode if src0 or dst has the Q or UQ type but not if src1 is the only operand with the Q or UQ type.
For positive values, this operation is src0 / 2shiftCount and for negative values, this operation is src0 / 2shiftCount - 1.
Format:
[(pred)] asr[.cmod] (exec_size) dst src0 src1
If src0 is -1, the result is -1 regardless of the shift count.
For unsigned src0 types, asr and shr produce the same result.
The avg instruction performs component-wise integer average of src0 and src1 and stores the results in dst. An integer average uses integer upward rounding. It is equivalent to increment one to the addition of src0 and src1 and then apply an arithmetic right shift to this intermediate value.
Format:
The avg instruction performs component-wise integer average of src0 and src1 and stores the results in dst. An integer average uses integer upward rounding. It is equivalent to increment one to the addition of src0 and src1 and then apply an arithmetic right shift to this intermediate value.
missing required field 'tag'
Bit Field Insert 1
The bfi1 instruction is the first instruction in a two-instruction macro for bfi (Bit Field Insert).
The bfi1 instruction component-wise generates mask with control from src0 and src1 and stores the results in dst. The mask is used in the bfi2 instruction to generate the final result of bfi.
Create a bit mask corresponding to the bit field width and offset in src0 and src1. Store the bit mask in dst. The mask has all bits in the bit field set to 1 and all other bits as 0.
The width and offset values are from the low five bits of src0 and src1 respectively, or src0 & 0x1f and src1 & 0x1f.
If width is zero, the result is zero.
The bfi macro has four source operands: src0 - bit field width in low five bits, src1 - bit field offset/starting bit position in low five bits, src2 - bit field value to insert, using only the number of least significant bits given by width in src0, and src3 - overall value into which the bit field is inserted, providing all bits other than the inserted bits for the result value.
bfi dst src0 src1 src2 src3
// Translates to these two instructions:
bfi1 dst src0 src1
bfi2 dst dst src2 src3
Format:
[(pred)] bfi1 (exec_size) dst src0 src1
No accumulator access, implicit or explicit.
A SIMD16 instruction is not allowed.
The bfi2 instruction is the second instruction in a two-instruction macro for bfi (Bit Field Insert).
The bfi2 instruction component-wise performs the bitfield insert operation on src1 and src2 based on the mask in src0.
Use the mask in src0 to take a bit field value from the low bits of src1 and combine it with the value from src2 (so src2 provides all bits other than those masked out and replaced by the bit field value). Store the result in dst.
The bfi macro has four source operands: src0 - bit field width in low five bits, src1 - bit field offset/starting bit position in low five bits, src2 - bit field value to insert, using only the number of least significant bits given by width in src0, and src3 - overall value into which the bit field is inserted, providing all bits other than the inserted bits for the result value.
bfi dst src0 src1 src2 src3
// Translates to these two instructions:
bfi1 dst src0 src1
bfi2 dst dst src2 src3
Format:
[(pred)] bfi2 (exec_size) dst src0 src1 src2
missing required field 'name'
Branch Converging
12write_imagei14ocl_image3d_woDv4_iS0_
unsigned enumerator with negative value
The break instruction is used to early-out from the inner most loop, or early out from the inner most switch block.
When used in a loop, upon execution, the break instruction terminates the loop for all execution channels enabled. If all the enabled channels hit the break instruction, jump to the instruction referenced by JIP. JIP should be the offset to the end of the inner most conditional or loop block, UIP should be the offset to the while instruction of the loop block.
If SPF is ON, the UIP must be used to update IP; JIP is not used in this case
The following table describes the two 16-bit instruction pointer offsets. Both the JIP and UIP are signed 16-bit numbers, added to IP pre-increment. In GEN binary, JIP and UIP are at location src1 and must be of type W (signed word integer).
Format:
[(pred)] break (exec_size) JIP UIP
call
calla
missing required field 'types'
Count Bits Set
The cbit instruction counts component-wise the total bits set in src0 and stores the resulting counts in dst.
Format:
[(pred)] cbit (exec_size) dst src0
Compare
missing required field 'directory'
cont
Continue
Double Precision Floating Point Immediate Data Move
missing 'distinct', required for !DICompileUnit
The dp2 instruction performs a two-wide dot product on four-tuple vector basis and storing the same scalar result per four tuple to all four channels in dst. This instruction is similar to dp4 except that every third and fourth element of src0 (post-source-swizzle if present) are not involved in the computation.
The dot product of two vectors of equal length is the sum of the products of each pair of corresponding elements.
The dp4 instruction includes all four elements of each vector in the dot product. The dp3 instruction includes the first three elements of each vector in the dot product.
Format:
[(pred)] dp2[.cmod] (exec_size) dst src0 src1
igc-add-implicit-gid
missing required field 'file'
Dot Product Homogeneous
The dph instruction performs a four-wide homogeneous dot product on four-tuple vector basis and storing the same scalar result per four tuple to all four channels in dst. This instruction is similar to dp4 except that every fourth element of src0 (post-source-swizzle if present) is forced to 1.0f.
